

Microchip MPLAB XC8 Assembler V2.10 build 88905656 
                                                                                               Sat Jan 02 18:11:07 2021

Microchip MPLAB XC8 C Compiler v2.10 (Free license) build 20190730164152 Og1 
     1                           	processor	16F15355
     2                           	opt	pw 120
     3                           	opt	flic
     4                           	psect	idataBANK0,global,class=CODE,delta=2
     5                           	psect	stringtext1,global,class=STRCODE,delta=2
     6                           	psect	nvBANK0,global,class=BANK0,space=1,delta=1
     7                           	psect	cinit,global,class=CODE,merge=1,delta=2
     8                           	psect	bssCOMMON,global,class=COMMON,space=1,delta=1
     9                           	psect	bssBANK0,global,class=BANK0,space=1,delta=1
    10                           	psect	dataBANK0,global,class=BANK0,space=1,delta=1
    11                           	psect	clrtext,global,class=CODE,delta=2
    12                           	psect	cstackCOMMON,global,class=COMMON,space=1,delta=1
    13                           	psect	cstackBANK0,global,class=BANK0,space=1,delta=1
    14                           	psect	maintext,global,class=CODE,merge=1,split=1,delta=2
    15                           	psect	text1,local,class=CODE,merge=1,delta=2
    16                           	psect	text2,local,class=CODE,merge=1,delta=2
    17                           	psect	text3,local,class=CODE,merge=1,delta=2
    18                           	psect	text4,local,class=CODE,merge=1,delta=2
    19                           	psect	text5,local,class=CODE,merge=1,delta=2
    20                           	psect	text6,local,class=CODE,merge=1,delta=2
    21                           	psect	text7,local,class=CODE,merge=1,delta=2
    22                           	psect	text8,local,class=CODE,merge=1,delta=2
    23                           	psect	text9,local,class=CODE,merge=1,delta=2
    24                           	psect	text10,local,class=CODE,merge=1,delta=2
    25                           	psect	text11,local,class=CODE,merge=1,delta=2
    26                           	psect	text12,local,class=CODE,merge=1,delta=2
    27                           	psect	text13,local,class=CODE,merge=1,delta=2
    28                           	psect	text14,local,class=CODE,merge=1,delta=2
    29                           	psect	text15,local,class=CODE,merge=1,delta=2
    30                           	psect	intentry,global,class=CODE,delta=2
    31                           	psect	text17,local,class=CODE,merge=1,delta=2
    32                           	psect	text18,local,class=CODE,merge=1,delta=2
    33                           	psect	text19,local,class=CODE,merge=1,delta=2
    34                           	psect	text20,local,class=CODE,merge=1,delta=2
    35                           	psect	text21,local,class=CODE,merge=1,delta=2
    36                           	psect	text22,local,class=CODE,merge=1,delta=2
    37                           	psect	text23,local,class=CODE,merge=1,delta=2
    38                           	psect	text24,local,class=CODE,merge=1,delta=2
    39                           	psect	text25,local,class=CODE,merge=1,delta=2
    40                           	psect	text26,local,class=CODE,merge=1,delta=2
    41                           	psect	text27,local,class=CODE,merge=1,delta=2
    42                           	psect	text28,local,class=CODE,merge=1,delta=2
    43                           	psect	text29,local,class=CODE,merge=1,delta=2
    44                           	dabs	1,0x7E,2
    45  0000                     
    46                           ; Version 2.10
    47                           ; Generated 31/07/2019 GMT
    48                           ; 
    49                           ; Copyright © 2019, Microchip Technology Inc. and its subsidiaries ("Microchip")
    50                           ; All rights reserved.
    51                           ; 
    52                           ; This software is developed by Microchip Technology Inc. and its subsidiaries ("Microch
      +                          ip").
    53                           ; 
    54                           ; Redistribution and use in source and binary forms, with or without modification, are
    55                           ; permitted provided that the following conditions are met:
    56                           ; 
    57                           ;     1. Redistributions of source code must retain the above copyright notice, this lis
      +                          t of
    58                           ;        conditions and the following disclaimer.
    59                           ; 
    60                           ;     2. Redistributions in binary form must reproduce the above copyright notice, this 
      +                          list
    61                           ;        of conditions and the following disclaimer in the documentation and/or other
    62                           ;        materials provided with the distribution.
    63                           ; 
    64                           ;     3. Microchip's name may not be used to endorse or promote products derived from th
      +                          is
    65                           ;        software without specific prior written permission.
    66                           ; 
    67                           ; THIS SOFTWARE IS PROVIDED BY MICROCHIP "AS IS" AND ANY EXPRESS OR IMPLIED WARRANTIES,
    68                           ; INCLUDING, BUT NOT LIMITED TO, THE IMPLIED WARRANTIES OF MERCHANTABILITY AND FITNESS F
      +                          OR
    69                           ; PURPOSE ARE DISCLAIMED.  IN NO EVENT SHALL MICROCHIP BE LIABLE FOR ANY DIRECT, INDIREC
      +                          T,
    70                           ; INCIDENTAL, SPECIAL, EXEMPLARY, OR CONSEQUENTIAL DAMAGES (INCLUDING BUT NOT LIMITED TO
    71                           ; PROCUREMENT OF SUBSTITUTE GOODS OR SERVICES; LOSS OF USE, DATA OR PROFITS; OR BUSINESS
    72                           ; INTERRUPTION) HOWSOEVER CAUSED AND ON ANY THEORY OF LIABILITY, WHETHER IN CONTRACT, ST
      +                          RICT
    73                           ; LIABILITY, OR TORT (INCLUDING NEGLIGENCE OR OTHERWISE) ARISING IN ANY WAY OUT OF THE U
      +                          SE OF
    74                           ; THIS SOFTWARE, EVEN IF ADVISED OF THE POSSIBILITY OF SUCH DAMAGE.
    75                           ; 
    76                           ; 
    77                           ; Code-generator required, PIC16F15355 Definitions
    78                           ; 
    79                           ; SFR Addresses
    80  0000                     	;# 
    81  0001                     	;# 
    82  0002                     	;# 
    83  0003                     	;# 
    84  0004                     	;# 
    85  0005                     	;# 
    86  0006                     	;# 
    87  0007                     	;# 
    88  0008                     	;# 
    89  0009                     	;# 
    90  000A                     	;# 
    91  000B                     	;# 
    92  000C                     	;# 
    93  000D                     	;# 
    94  000E                     	;# 
    95  0010                     	;# 
    96  0012                     	;# 
    97  0013                     	;# 
    98  0014                     	;# 
    99  0016                     	;# 
   100  0018                     	;# 
   101  0019                     	;# 
   102  001A                     	;# 
   103  009B                     	;# 
   104  009B                     	;# 
   105  009C                     	;# 
   106  009D                     	;# 
   107  009E                     	;# 
   108  009F                     	;# 
   109  0119                     	;# 
   110  0119                     	;# 
   111  0119                     	;# 
   112  011A                     	;# 
   113  011A                     	;# 
   114  011A                     	;# 
   115  011B                     	;# 
   116  011B                     	;# 
   117  011B                     	;# 
   118  011B                     	;# 
   119  011B                     	;# 
   120  011C                     	;# 
   121  011C                     	;# 
   122  011C                     	;# 
   123  011D                     	;# 
   124  011D                     	;# 
   125  011D                     	;# 
   126  011E                     	;# 
   127  011E                     	;# 
   128  011E                     	;# 
   129  011F                     	;# 
   130  011F                     	;# 
   131  011F                     	;# 
   132  011F                     	;# 
   133  011F                     	;# 
   134  018C                     	;# 
   135  018D                     	;# 
   136  018E                     	;# 
   137  018F                     	;# 
   138  0190                     	;# 
   139  0191                     	;# 
   140  0192                     	;# 
   141  0196                     	;# 
   142  0197                     	;# 
   143  0198                     	;# 
   144  0199                     	;# 
   145  019A                     	;# 
   146  019B                     	;# 
   147  019C                     	;# 
   148  020C                     	;# 
   149  020C                     	;# 
   150  020D                     	;# 
   151  020E                     	;# 
   152  020F                     	;# 
   153  020F                     	;# 
   154  0210                     	;# 
   155  0210                     	;# 
   156  0211                     	;# 
   157  0211                     	;# 
   158  028C                     	;# 
   159  028C                     	;# 
   160  028D                     	;# 
   161  028D                     	;# 
   162  028E                     	;# 
   163  028F                     	;# 
   164  0290                     	;# 
   165  0291                     	;# 
   166  030C                     	;# 
   167  030C                     	;# 
   168  030D                     	;# 
   169  030E                     	;# 
   170  030F                     	;# 
   171  0310                     	;# 
   172  0310                     	;# 
   173  0311                     	;# 
   174  0312                     	;# 
   175  0313                     	;# 
   176  0314                     	;# 
   177  0314                     	;# 
   178  0315                     	;# 
   179  0316                     	;# 
   180  0318                     	;# 
   181  0318                     	;# 
   182  0319                     	;# 
   183  031A                     	;# 
   184  031C                     	;# 
   185  031C                     	;# 
   186  031D                     	;# 
   187  031E                     	;# 
   188  038C                     	;# 
   189  038C                     	;# 
   190  038D                     	;# 
   191  038E                     	;# 
   192  058C                     	;# 
   193  058C                     	;# 
   194  058D                     	;# 
   195  058E                     	;# 
   196  058F                     	;# 
   197  058F                     	;# 
   198  0590                     	;# 
   199  0591                     	;# 
   200  0592                     	;# 
   201  0593                     	;# 
   202  059C                     	;# 
   203  059C                     	;# 
   204  059D                     	;# 
   205  059D                     	;# 
   206  059E                     	;# 
   207  059F                     	;# 
   208  060C                     	;# 
   209  060D                     	;# 
   210  060E                     	;# 
   211  060F                     	;# 
   212  0610                     	;# 
   213  0611                     	;# 
   214  0612                     	;# 
   215  0613                     	;# 
   216  0614                     	;# 
   217  070C                     	;# 
   218  070D                     	;# 
   219  070E                     	;# 
   220  070F                     	;# 
   221  0710                     	;# 
   222  0711                     	;# 
   223  0712                     	;# 
   224  0713                     	;# 
   225  0716                     	;# 
   226  0717                     	;# 
   227  0718                     	;# 
   228  0719                     	;# 
   229  071A                     	;# 
   230  071B                     	;# 
   231  071C                     	;# 
   232  071D                     	;# 
   233  0796                     	;# 
   234  0797                     	;# 
   235  0798                     	;# 
   236  0799                     	;# 
   237  079A                     	;# 
   238  079B                     	;# 
   239  080C                     	;# 
   240  080D                     	;# 
   241  080E                     	;# 
   242  080F                     	;# 
   243  0810                     	;# 
   244  0811                     	;# 
   245  0812                     	;# 
   246  0813                     	;# 
   247  0814                     	;# 
   248  081A                     	;# 
   249  081A                     	;# 
   250  081B                     	;# 
   251  081C                     	;# 
   252  081C                     	;# 
   253  081D                     	;# 
   254  081E                     	;# 
   255  081F                     	;# 
   256  088C                     	;# 
   257  088D                     	;# 
   258  088E                     	;# 
   259  088F                     	;# 
   260  0890                     	;# 
   261  0891                     	;# 
   262  0892                     	;# 
   263  0893                     	;# 
   264  0895                     	;# 
   265  0896                     	;# 
   266  090C                     	;# 
   267  090E                     	;# 
   268  090F                     	;# 
   269  091F                     	;# 
   270  098F                     	;# 
   271  098F                     	;# 
   272  0990                     	;# 
   273  0991                     	;# 
   274  0992                     	;# 
   275  0993                     	;# 
   276  0994                     	;# 
   277  0995                     	;# 
   278  0996                     	;# 
   279  0997                     	;# 
   280  0A19                     	;# 
   281  0A19                     	;# 
   282  0A1A                     	;# 
   283  0A1A                     	;# 
   284  0A1B                     	;# 
   285  0A1B                     	;# 
   286  0A1B                     	;# 
   287  0A1C                     	;# 
   288  0A1C                     	;# 
   289  0A1D                     	;# 
   290  0A1D                     	;# 
   291  0A1E                     	;# 
   292  0A1E                     	;# 
   293  0A1F                     	;# 
   294  0A1F                     	;# 
   295  0A1F                     	;# 
   296  1E0F                     	;# 
   297  1E10                     	;# 
   298  1E11                     	;# 
   299  1E12                     	;# 
   300  1E13                     	;# 
   301  1E14                     	;# 
   302  1E15                     	;# 
   303  1E16                     	;# 
   304  1E17                     	;# 
   305  1E18                     	;# 
   306  1E19                     	;# 
   307  1E1A                     	;# 
   308  1E1B                     	;# 
   309  1E1C                     	;# 
   310  1E1D                     	;# 
   311  1E1E                     	;# 
   312  1E1F                     	;# 
   313  1E20                     	;# 
   314  1E21                     	;# 
   315  1E22                     	;# 
   316  1E23                     	;# 
   317  1E24                     	;# 
   318  1E25                     	;# 
   319  1E26                     	;# 
   320  1E27                     	;# 
   321  1E28                     	;# 
   322  1E29                     	;# 
   323  1E2A                     	;# 
   324  1E2B                     	;# 
   325  1E2C                     	;# 
   326  1E2D                     	;# 
   327  1E2E                     	;# 
   328  1E2F                     	;# 
   329  1E30                     	;# 
   330  1E31                     	;# 
   331  1E32                     	;# 
   332  1E33                     	;# 
   333  1E34                     	;# 
   334  1E35                     	;# 
   335  1E36                     	;# 
   336  1E37                     	;# 
   337  1E8F                     	;# 
   338  1E90                     	;# 
   339  1E91                     	;# 
   340  1E92                     	;# 
   341  1E93                     	;# 
   342  1E9C                     	;# 
   343  1EA1                     	;# 
   344  1EA2                     	;# 
   345  1EB1                     	;# 
   346  1EBB                     	;# 
   347  1EBC                     	;# 
   348  1EBD                     	;# 
   349  1EBE                     	;# 
   350  1EC3                     	;# 
   351  1EC5                     	;# 
   352  1EC6                     	;# 
   353  1EC7                     	;# 
   354  1EC8                     	;# 
   355  1EC9                     	;# 
   356  1ECA                     	;# 
   357  1ECB                     	;# 
   358  1ECC                     	;# 
   359  1ECD                     	;# 
   360  1ECE                     	;# 
   361  1F10                     	;# 
   362  1F11                     	;# 
   363  1F12                     	;# 
   364  1F13                     	;# 
   365  1F14                     	;# 
   366  1F15                     	;# 
   367  1F16                     	;# 
   368  1F17                     	;# 
   369  1F18                     	;# 
   370  1F19                     	;# 
   371  1F1A                     	;# 
   372  1F1B                     	;# 
   373  1F1C                     	;# 
   374  1F1D                     	;# 
   375  1F1E                     	;# 
   376  1F1F                     	;# 
   377  1F20                     	;# 
   378  1F21                     	;# 
   379  1F22                     	;# 
   380  1F23                     	;# 
   381  1F24                     	;# 
   382  1F25                     	;# 
   383  1F26                     	;# 
   384  1F27                     	;# 
   385  1F38                     	;# 
   386  1F39                     	;# 
   387  1F3A                     	;# 
   388  1F3B                     	;# 
   389  1F3C                     	;# 
   390  1F3D                     	;# 
   391  1F3E                     	;# 
   392  1F3F                     	;# 
   393  1F43                     	;# 
   394  1F44                     	;# 
   395  1F45                     	;# 
   396  1F46                     	;# 
   397  1F47                     	;# 
   398  1F48                     	;# 
   399  1F49                     	;# 
   400  1F4A                     	;# 
   401  1F4E                     	;# 
   402  1F4F                     	;# 
   403  1F50                     	;# 
   404  1F51                     	;# 
   405  1F52                     	;# 
   406  1F53                     	;# 
   407  1F54                     	;# 
   408  1F55                     	;# 
   409  1F65                     	;# 
   410  1F68                     	;# 
   411  1F69                     	;# 
   412  1F6A                     	;# 
   413  1F6B                     	;# 
   414  1FE4                     	;# 
   415  1FE5                     	;# 
   416  1FE6                     	;# 
   417  1FE7                     	;# 
   418  1FE8                     	;# 
   419  1FE8                     	;# 
   420  1FE9                     	;# 
   421  1FEA                     	;# 
   422  1FEA                     	;# 
   423  1FEB                     	;# 
   424  1FED                     	;# 
   425  1FEE                     	;# 
   426  1FEF                     	;# 
   427  0000                     	;# 
   428  0001                     	;# 
   429  0002                     	;# 
   430  0003                     	;# 
   431  0004                     	;# 
   432  0005                     	;# 
   433  0006                     	;# 
   434  0007                     	;# 
   435  0008                     	;# 
   436  0009                     	;# 
   437  000A                     	;# 
   438  000B                     	;# 
   439  000C                     	;# 
   440  000D                     	;# 
   441  000E                     	;# 
   442  0010                     	;# 
   443  0012                     	;# 
   444  0013                     	;# 
   445  0014                     	;# 
   446  0016                     	;# 
   447  0018                     	;# 
   448  0019                     	;# 
   449  001A                     	;# 
   450  009B                     	;# 
   451  009B                     	;# 
   452  009C                     	;# 
   453  009D                     	;# 
   454  009E                     	;# 
   455  009F                     	;# 
   456  0119                     	;# 
   457  0119                     	;# 
   458  0119                     	;# 
   459  011A                     	;# 
   460  011A                     	;# 
   461  011A                     	;# 
   462  011B                     	;# 
   463  011B                     	;# 
   464  011B                     	;# 
   465  011B                     	;# 
   466  011B                     	;# 
   467  011C                     	;# 
   468  011C                     	;# 
   469  011C                     	;# 
   470  011D                     	;# 
   471  011D                     	;# 
   472  011D                     	;# 
   473  011E                     	;# 
   474  011E                     	;# 
   475  011E                     	;# 
   476  011F                     	;# 
   477  011F                     	;# 
   478  011F                     	;# 
   479  011F                     	;# 
   480  011F                     	;# 
   481  018C                     	;# 
   482  018D                     	;# 
   483  018E                     	;# 
   484  018F                     	;# 
   485  0190                     	;# 
   486  0191                     	;# 
   487  0192                     	;# 
   488  0196                     	;# 
   489  0197                     	;# 
   490  0198                     	;# 
   491  0199                     	;# 
   492  019A                     	;# 
   493  019B                     	;# 
   494  019C                     	;# 
   495  020C                     	;# 
   496  020C                     	;# 
   497  020D                     	;# 
   498  020E                     	;# 
   499  020F                     	;# 
   500  020F                     	;# 
   501  0210                     	;# 
   502  0210                     	;# 
   503  0211                     	;# 
   504  0211                     	;# 
   505  028C                     	;# 
   506  028C                     	;# 
   507  028D                     	;# 
   508  028D                     	;# 
   509  028E                     	;# 
   510  028F                     	;# 
   511  0290                     	;# 
   512  0291                     	;# 
   513  030C                     	;# 
   514  030C                     	;# 
   515  030D                     	;# 
   516  030E                     	;# 
   517  030F                     	;# 
   518  0310                     	;# 
   519  0310                     	;# 
   520  0311                     	;# 
   521  0312                     	;# 
   522  0313                     	;# 
   523  0314                     	;# 
   524  0314                     	;# 
   525  0315                     	;# 
   526  0316                     	;# 
   527  0318                     	;# 
   528  0318                     	;# 
   529  0319                     	;# 
   530  031A                     	;# 
   531  031C                     	;# 
   532  031C                     	;# 
   533  031D                     	;# 
   534  031E                     	;# 
   535  038C                     	;# 
   536  038C                     	;# 
   537  038D                     	;# 
   538  038E                     	;# 
   539  058C                     	;# 
   540  058C                     	;# 
   541  058D                     	;# 
   542  058E                     	;# 
   543  058F                     	;# 
   544  058F                     	;# 
   545  0590                     	;# 
   546  0591                     	;# 
   547  0592                     	;# 
   548  0593                     	;# 
   549  059C                     	;# 
   550  059C                     	;# 
   551  059D                     	;# 
   552  059D                     	;# 
   553  059E                     	;# 
   554  059F                     	;# 
   555  060C                     	;# 
   556  060D                     	;# 
   557  060E                     	;# 
   558  060F                     	;# 
   559  0610                     	;# 
   560  0611                     	;# 
   561  0612                     	;# 
   562  0613                     	;# 
   563  0614                     	;# 
   564  070C                     	;# 
   565  070D                     	;# 
   566  070E                     	;# 
   567  070F                     	;# 
   568  0710                     	;# 
   569  0711                     	;# 
   570  0712                     	;# 
   571  0713                     	;# 
   572  0716                     	;# 
   573  0717                     	;# 
   574  0718                     	;# 
   575  0719                     	;# 
   576  071A                     	;# 
   577  071B                     	;# 
   578  071C                     	;# 
   579  071D                     	;# 
   580  0796                     	;# 
   581  0797                     	;# 
   582  0798                     	;# 
   583  0799                     	;# 
   584  079A                     	;# 
   585  079B                     	;# 
   586  080C                     	;# 
   587  080D                     	;# 
   588  080E                     	;# 
   589  080F                     	;# 
   590  0810                     	;# 
   591  0811                     	;# 
   592  0812                     	;# 
   593  0813                     	;# 
   594  0814                     	;# 
   595  081A                     	;# 
   596  081A                     	;# 
   597  081B                     	;# 
   598  081C                     	;# 
   599  081C                     	;# 
   600  081D                     	;# 
   601  081E                     	;# 
   602  081F                     	;# 
   603  088C                     	;# 
   604  088D                     	;# 
   605  088E                     	;# 
   606  088F                     	;# 
   607  0890                     	;# 
   608  0891                     	;# 
   609  0892                     	;# 
   610  0893                     	;# 
   611  0895                     	;# 
   612  0896                     	;# 
   613  090C                     	;# 
   614  090E                     	;# 
   615  090F                     	;# 
   616  091F                     	;# 
   617  098F                     	;# 
   618  098F                     	;# 
   619  0990                     	;# 
   620  0991                     	;# 
   621  0992                     	;# 
   622  0993                     	;# 
   623  0994                     	;# 
   624  0995                     	;# 
   625  0996                     	;# 
   626  0997                     	;# 
   627  0A19                     	;# 
   628  0A19                     	;# 
   629  0A1A                     	;# 
   630  0A1A                     	;# 
   631  0A1B                     	;# 
   632  0A1B                     	;# 
   633  0A1B                     	;# 
   634  0A1C                     	;# 
   635  0A1C                     	;# 
   636  0A1D                     	;# 
   637  0A1D                     	;# 
   638  0A1E                     	;# 
   639  0A1E                     	;# 
   640  0A1F                     	;# 
   641  0A1F                     	;# 
   642  0A1F                     	;# 
   643  1E0F                     	;# 
   644  1E10                     	;# 
   645  1E11                     	;# 
   646  1E12                     	;# 
   647  1E13                     	;# 
   648  1E14                     	;# 
   649  1E15                     	;# 
   650  1E16                     	;# 
   651  1E17                     	;# 
   652  1E18                     	;# 
   653  1E19                     	;# 
   654  1E1A                     	;# 
   655  1E1B                     	;# 
   656  1E1C                     	;# 
   657  1E1D                     	;# 
   658  1E1E                     	;# 
   659  1E1F                     	;# 
   660  1E20                     	;# 
   661  1E21                     	;# 
   662  1E22                     	;# 
   663  1E23                     	;# 
   664  1E24                     	;# 
   665  1E25                     	;# 
   666  1E26                     	;# 
   667  1E27                     	;# 
   668  1E28                     	;# 
   669  1E29                     	;# 
   670  1E2A                     	;# 
   671  1E2B                     	;# 
   672  1E2C                     	;# 
   673  1E2D                     	;# 
   674  1E2E                     	;# 
   675  1E2F                     	;# 
   676  1E30                     	;# 
   677  1E31                     	;# 
   678  1E32                     	;# 
   679  1E33                     	;# 
   680  1E34                     	;# 
   681  1E35                     	;# 
   682  1E36                     	;# 
   683  1E37                     	;# 
   684  1E8F                     	;# 
   685  1E90                     	;# 
   686  1E91                     	;# 
   687  1E92                     	;# 
   688  1E93                     	;# 
   689  1E9C                     	;# 
   690  1EA1                     	;# 
   691  1EA2                     	;# 
   692  1EB1                     	;# 
   693  1EBB                     	;# 
   694  1EBC                     	;# 
   695  1EBD                     	;# 
   696  1EBE                     	;# 
   697  1EC3                     	;# 
   698  1EC5                     	;# 
   699  1EC6                     	;# 
   700  1EC7                     	;# 
   701  1EC8                     	;# 
   702  1EC9                     	;# 
   703  1ECA                     	;# 
   704  1ECB                     	;# 
   705  1ECC                     	;# 
   706  1ECD                     	;# 
   707  1ECE                     	;# 
   708  1F10                     	;# 
   709  1F11                     	;# 
   710  1F12                     	;# 
   711  1F13                     	;# 
   712  1F14                     	;# 
   713  1F15                     	;# 
   714  1F16                     	;# 
   715  1F17                     	;# 
   716  1F18                     	;# 
   717  1F19                     	;# 
   718  1F1A                     	;# 
   719  1F1B                     	;# 
   720  1F1C                     	;# 
   721  1F1D                     	;# 
   722  1F1E                     	;# 
   723  1F1F                     	;# 
   724  1F20                     	;# 
   725  1F21                     	;# 
   726  1F22                     	;# 
   727  1F23                     	;# 
   728  1F24                     	;# 
   729  1F25                     	;# 
   730  1F26                     	;# 
   731  1F27                     	;# 
   732  1F38                     	;# 
   733  1F39                     	;# 
   734  1F3A                     	;# 
   735  1F3B                     	;# 
   736  1F3C                     	;# 
   737  1F3D                     	;# 
   738  1F3E                     	;# 
   739  1F3F                     	;# 
   740  1F43                     	;# 
   741  1F44                     	;# 
   742  1F45                     	;# 
   743  1F46                     	;# 
   744  1F47                     	;# 
   745  1F48                     	;# 
   746  1F49                     	;# 
   747  1F4A                     	;# 
   748  1F4E                     	;# 
   749  1F4F                     	;# 
   750  1F50                     	;# 
   751  1F51                     	;# 
   752  1F52                     	;# 
   753  1F53                     	;# 
   754  1F54                     	;# 
   755  1F55                     	;# 
   756  1F65                     	;# 
   757  1F68                     	;# 
   758  1F69                     	;# 
   759  1F6A                     	;# 
   760  1F6B                     	;# 
   761  1FE4                     	;# 
   762  1FE5                     	;# 
   763  1FE6                     	;# 
   764  1FE7                     	;# 
   765  1FE8                     	;# 
   766  1FE8                     	;# 
   767  1FE9                     	;# 
   768  1FEA                     	;# 
   769  1FEA                     	;# 
   770  1FEB                     	;# 
   771  1FED                     	;# 
   772  1FEE                     	;# 
   773  1FEF                     	;# 
   774  0000                     	;# 
   775  0001                     	;# 
   776  0002                     	;# 
   777  0003                     	;# 
   778  0004                     	;# 
   779  0005                     	;# 
   780  0006                     	;# 
   781  0007                     	;# 
   782  0008                     	;# 
   783  0009                     	;# 
   784  000A                     	;# 
   785  000B                     	;# 
   786  000C                     	;# 
   787  000D                     	;# 
   788  000E                     	;# 
   789  0010                     	;# 
   790  0012                     	;# 
   791  0013                     	;# 
   792  0014                     	;# 
   793  0016                     	;# 
   794  0018                     	;# 
   795  0019                     	;# 
   796  001A                     	;# 
   797  009B                     	;# 
   798  009B                     	;# 
   799  009C                     	;# 
   800  009D                     	;# 
   801  009E                     	;# 
   802  009F                     	;# 
   803  0119                     	;# 
   804  0119                     	;# 
   805  0119                     	;# 
   806  011A                     	;# 
   807  011A                     	;# 
   808  011A                     	;# 
   809  011B                     	;# 
   810  011B                     	;# 
   811  011B                     	;# 
   812  011B                     	;# 
   813  011B                     	;# 
   814  011C                     	;# 
   815  011C                     	;# 
   816  011C                     	;# 
   817  011D                     	;# 
   818  011D                     	;# 
   819  011D                     	;# 
   820  011E                     	;# 
   821  011E                     	;# 
   822  011E                     	;# 
   823  011F                     	;# 
   824  011F                     	;# 
   825  011F                     	;# 
   826  011F                     	;# 
   827  011F                     	;# 
   828  018C                     	;# 
   829  018D                     	;# 
   830  018E                     	;# 
   831  018F                     	;# 
   832  0190                     	;# 
   833  0191                     	;# 
   834  0192                     	;# 
   835  0196                     	;# 
   836  0197                     	;# 
   837  0198                     	;# 
   838  0199                     	;# 
   839  019A                     	;# 
   840  019B                     	;# 
   841  019C                     	;# 
   842  020C                     	;# 
   843  020C                     	;# 
   844  020D                     	;# 
   845  020E                     	;# 
   846  020F                     	;# 
   847  020F                     	;# 
   848  0210                     	;# 
   849  0210                     	;# 
   850  0211                     	;# 
   851  0211                     	;# 
   852  028C                     	;# 
   853  028C                     	;# 
   854  028D                     	;# 
   855  028D                     	;# 
   856  028E                     	;# 
   857  028F                     	;# 
   858  0290                     	;# 
   859  0291                     	;# 
   860  030C                     	;# 
   861  030C                     	;# 
   862  030D                     	;# 
   863  030E                     	;# 
   864  030F                     	;# 
   865  0310                     	;# 
   866  0310                     	;# 
   867  0311                     	;# 
   868  0312                     	;# 
   869  0313                     	;# 
   870  0314                     	;# 
   871  0314                     	;# 
   872  0315                     	;# 
   873  0316                     	;# 
   874  0318                     	;# 
   875  0318                     	;# 
   876  0319                     	;# 
   877  031A                     	;# 
   878  031C                     	;# 
   879  031C                     	;# 
   880  031D                     	;# 
   881  031E                     	;# 
   882  038C                     	;# 
   883  038C                     	;# 
   884  038D                     	;# 
   885  038E                     	;# 
   886  058C                     	;# 
   887  058C                     	;# 
   888  058D                     	;# 
   889  058E                     	;# 
   890  058F                     	;# 
   891  058F                     	;# 
   892  0590                     	;# 
   893  0591                     	;# 
   894  0592                     	;# 
   895  0593                     	;# 
   896  059C                     	;# 
   897  059C                     	;# 
   898  059D                     	;# 
   899  059D                     	;# 
   900  059E                     	;# 
   901  059F                     	;# 
   902  060C                     	;# 
   903  060D                     	;# 
   904  060E                     	;# 
   905  060F                     	;# 
   906  0610                     	;# 
   907  0611                     	;# 
   908  0612                     	;# 
   909  0613                     	;# 
   910  0614                     	;# 
   911  070C                     	;# 
   912  070D                     	;# 
   913  070E                     	;# 
   914  070F                     	;# 
   915  0710                     	;# 
   916  0711                     	;# 
   917  0712                     	;# 
   918  0713                     	;# 
   919  0716                     	;# 
   920  0717                     	;# 
   921  0718                     	;# 
   922  0719                     	;# 
   923  071A                     	;# 
   924  071B                     	;# 
   925  071C                     	;# 
   926  071D                     	;# 
   927  0796                     	;# 
   928  0797                     	;# 
   929  0798                     	;# 
   930  0799                     	;# 
   931  079A                     	;# 
   932  079B                     	;# 
   933  080C                     	;# 
   934  080D                     	;# 
   935  080E                     	;# 
   936  080F                     	;# 
   937  0810                     	;# 
   938  0811                     	;# 
   939  0812                     	;# 
   940  0813                     	;# 
   941  0814                     	;# 
   942  081A                     	;# 
   943  081A                     	;# 
   944  081B                     	;# 
   945  081C                     	;# 
   946  081C                     	;# 
   947  081D                     	;# 
   948  081E                     	;# 
   949  081F                     	;# 
   950  088C                     	;# 
   951  088D                     	;# 
   952  088E                     	;# 
   953  088F                     	;# 
   954  0890                     	;# 
   955  0891                     	;# 
   956  0892                     	;# 
   957  0893                     	;# 
   958  0895                     	;# 
   959  0896                     	;# 
   960  090C                     	;# 
   961  090E                     	;# 
   962  090F                     	;# 
   963  091F                     	;# 
   964  098F                     	;# 
   965  098F                     	;# 
   966  0990                     	;# 
   967  0991                     	;# 
   968  0992                     	;# 
   969  0993                     	;# 
   970  0994                     	;# 
   971  0995                     	;# 
   972  0996                     	;# 
   973  0997                     	;# 
   974  0A19                     	;# 
   975  0A19                     	;# 
   976  0A1A                     	;# 
   977  0A1A                     	;# 
   978  0A1B                     	;# 
   979  0A1B                     	;# 
   980  0A1B                     	;# 
   981  0A1C                     	;# 
   982  0A1C                     	;# 
   983  0A1D                     	;# 
   984  0A1D                     	;# 
   985  0A1E                     	;# 
   986  0A1E                     	;# 
   987  0A1F                     	;# 
   988  0A1F                     	;# 
   989  0A1F                     	;# 
   990  1E0F                     	;# 
   991  1E10                     	;# 
   992  1E11                     	;# 
   993  1E12                     	;# 
   994  1E13                     	;# 
   995  1E14                     	;# 
   996  1E15                     	;# 
   997  1E16                     	;# 
   998  1E17                     	;# 
   999  1E18                     	;# 
  1000  1E19                     	;# 
  1001  1E1A                     	;# 
  1002  1E1B                     	;# 
  1003  1E1C                     	;# 
  1004  1E1D                     	;# 
  1005  1E1E                     	;# 
  1006  1E1F                     	;# 
  1007  1E20                     	;# 
  1008  1E21                     	;# 
  1009  1E22                     	;# 
  1010  1E23                     	;# 
  1011  1E24                     	;# 
  1012  1E25                     	;# 
  1013  1E26                     	;# 
  1014  1E27                     	;# 
  1015  1E28                     	;# 
  1016  1E29                     	;# 
  1017  1E2A                     	;# 
  1018  1E2B                     	;# 
  1019  1E2C                     	;# 
  1020  1E2D                     	;# 
  1021  1E2E                     	;# 
  1022  1E2F                     	;# 
  1023  1E30                     	;# 
  1024  1E31                     	;# 
  1025  1E32                     	;# 
  1026  1E33                     	;# 
  1027  1E34                     	;# 
  1028  1E35                     	;# 
  1029  1E36                     	;# 
  1030  1E37                     	;# 
  1031  1E8F                     	;# 
  1032  1E90                     	;# 
  1033  1E91                     	;# 
  1034  1E92                     	;# 
  1035  1E93                     	;# 
  1036  1E9C                     	;# 
  1037  1EA1                     	;# 
  1038  1EA2                     	;# 
  1039  1EB1                     	;# 
  1040  1EBB                     	;# 
  1041  1EBC                     	;# 
  1042  1EBD                     	;# 
  1043  1EBE                     	;# 
  1044  1EC3                     	;# 
  1045  1EC5                     	;# 
  1046  1EC6                     	;# 
  1047  1EC7                     	;# 
  1048  1EC8                     	;# 
  1049  1EC9                     	;# 
  1050  1ECA                     	;# 
  1051  1ECB                     	;# 
  1052  1ECC                     	;# 
  1053  1ECD                     	;# 
  1054  1ECE                     	;# 
  1055  1F10                     	;# 
  1056  1F11                     	;# 
  1057  1F12                     	;# 
  1058  1F13                     	;# 
  1059  1F14                     	;# 
  1060  1F15                     	;# 
  1061  1F16                     	;# 
  1062  1F17                     	;# 
  1063  1F18                     	;# 
  1064  1F19                     	;# 
  1065  1F1A                     	;# 
  1066  1F1B                     	;# 
  1067  1F1C                     	;# 
  1068  1F1D                     	;# 
  1069  1F1E                     	;# 
  1070  1F1F                     	;# 
  1071  1F20                     	;# 
  1072  1F21                     	;# 
  1073  1F22                     	;# 
  1074  1F23                     	;# 
  1075  1F24                     	;# 
  1076  1F25                     	;# 
  1077  1F26                     	;# 
  1078  1F27                     	;# 
  1079  1F38                     	;# 
  1080  1F39                     	;# 
  1081  1F3A                     	;# 
  1082  1F3B                     	;# 
  1083  1F3C                     	;# 
  1084  1F3D                     	;# 
  1085  1F3E                     	;# 
  1086  1F3F                     	;# 
  1087  1F43                     	;# 
  1088  1F44                     	;# 
  1089  1F45                     	;# 
  1090  1F46                     	;# 
  1091  1F47                     	;# 
  1092  1F48                     	;# 
  1093  1F49                     	;# 
  1094  1F4A                     	;# 
  1095  1F4E                     	;# 
  1096  1F4F                     	;# 
  1097  1F50                     	;# 
  1098  1F51                     	;# 
  1099  1F52                     	;# 
  1100  1F53                     	;# 
  1101  1F54                     	;# 
  1102  1F55                     	;# 
  1103  1F65                     	;# 
  1104  1F68                     	;# 
  1105  1F69                     	;# 
  1106  1F6A                     	;# 
  1107  1F6B                     	;# 
  1108  1FE4                     	;# 
  1109  1FE5                     	;# 
  1110  1FE6                     	;# 
  1111  1FE7                     	;# 
  1112  1FE8                     	;# 
  1113  1FE8                     	;# 
  1114  1FE9                     	;# 
  1115  1FEA                     	;# 
  1116  1FEA                     	;# 
  1117  1FEB                     	;# 
  1118  1FED                     	;# 
  1119  1FEE                     	;# 
  1120  1FEF                     	;# 
  1121  0000                     	;# 
  1122  0001                     	;# 
  1123  0002                     	;# 
  1124  0003                     	;# 
  1125  0004                     	;# 
  1126  0005                     	;# 
  1127  0006                     	;# 
  1128  0007                     	;# 
  1129  0008                     	;# 
  1130  0009                     	;# 
  1131  000A                     	;# 
  1132  000B                     	;# 
  1133  000C                     	;# 
  1134  000D                     	;# 
  1135  000E                     	;# 
  1136  0010                     	;# 
  1137  0012                     	;# 
  1138  0013                     	;# 
  1139  0014                     	;# 
  1140  0016                     	;# 
  1141  0018                     	;# 
  1142  0019                     	;# 
  1143  001A                     	;# 
  1144  009B                     	;# 
  1145  009B                     	;# 
  1146  009C                     	;# 
  1147  009D                     	;# 
  1148  009E                     	;# 
  1149  009F                     	;# 
  1150  0119                     	;# 
  1151  0119                     	;# 
  1152  0119                     	;# 
  1153  011A                     	;# 
  1154  011A                     	;# 
  1155  011A                     	;# 
  1156  011B                     	;# 
  1157  011B                     	;# 
  1158  011B                     	;# 
  1159  011B                     	;# 
  1160  011B                     	;# 
  1161  011C                     	;# 
  1162  011C                     	;# 
  1163  011C                     	;# 
  1164  011D                     	;# 
  1165  011D                     	;# 
  1166  011D                     	;# 
  1167  011E                     	;# 
  1168  011E                     	;# 
  1169  011E                     	;# 
  1170  011F                     	;# 
  1171  011F                     	;# 
  1172  011F                     	;# 
  1173  011F                     	;# 
  1174  011F                     	;# 
  1175  018C                     	;# 
  1176  018D                     	;# 
  1177  018E                     	;# 
  1178  018F                     	;# 
  1179  0190                     	;# 
  1180  0191                     	;# 
  1181  0192                     	;# 
  1182  0196                     	;# 
  1183  0197                     	;# 
  1184  0198                     	;# 
  1185  0199                     	;# 
  1186  019A                     	;# 
  1187  019B                     	;# 
  1188  019C                     	;# 
  1189  020C                     	;# 
  1190  020C                     	;# 
  1191  020D                     	;# 
  1192  020E                     	;# 
  1193  020F                     	;# 
  1194  020F                     	;# 
  1195  0210                     	;# 
  1196  0210                     	;# 
  1197  0211                     	;# 
  1198  0211                     	;# 
  1199  028C                     	;# 
  1200  028C                     	;# 
  1201  028D                     	;# 
  1202  028D                     	;# 
  1203  028E                     	;# 
  1204  028F                     	;# 
  1205  0290                     	;# 
  1206  0291                     	;# 
  1207  030C                     	;# 
  1208  030C                     	;# 
  1209  030D                     	;# 
  1210  030E                     	;# 
  1211  030F                     	;# 
  1212  0310                     	;# 
  1213  0310                     	;# 
  1214  0311                     	;# 
  1215  0312                     	;# 
  1216  0313                     	;# 
  1217  0314                     	;# 
  1218  0314                     	;# 
  1219  0315                     	;# 
  1220  0316                     	;# 
  1221  0318                     	;# 
  1222  0318                     	;# 
  1223  0319                     	;# 
  1224  031A                     	;# 
  1225  031C                     	;# 
  1226  031C                     	;# 
  1227  031D                     	;# 
  1228  031E                     	;# 
  1229  038C                     	;# 
  1230  038C                     	;# 
  1231  038D                     	;# 
  1232  038E                     	;# 
  1233  058C                     	;# 
  1234  058C                     	;# 
  1235  058D                     	;# 
  1236  058E                     	;# 
  1237  058F                     	;# 
  1238  058F                     	;# 
  1239  0590                     	;# 
  1240  0591                     	;# 
  1241  0592                     	;# 
  1242  0593                     	;# 
  1243  059C                     	;# 
  1244  059C                     	;# 
  1245  059D                     	;# 
  1246  059D                     	;# 
  1247  059E                     	;# 
  1248  059F                     	;# 
  1249  060C                     	;# 
  1250  060D                     	;# 
  1251  060E                     	;# 
  1252  060F                     	;# 
  1253  0610                     	;# 
  1254  0611                     	;# 
  1255  0612                     	;# 
  1256  0613                     	;# 
  1257  0614                     	;# 
  1258  070C                     	;# 
  1259  070D                     	;# 
  1260  070E                     	;# 
  1261  070F                     	;# 
  1262  0710                     	;# 
  1263  0711                     	;# 
  1264  0712                     	;# 
  1265  0713                     	;# 
  1266  0716                     	;# 
  1267  0717                     	;# 
  1268  0718                     	;# 
  1269  0719                     	;# 
  1270  071A                     	;# 
  1271  071B                     	;# 
  1272  071C                     	;# 
  1273  071D                     	;# 
  1274  0796                     	;# 
  1275  0797                     	;# 
  1276  0798                     	;# 
  1277  0799                     	;# 
  1278  079A                     	;# 
  1279  079B                     	;# 
  1280  080C                     	;# 
  1281  080D                     	;# 
  1282  080E                     	;# 
  1283  080F                     	;# 
  1284  0810                     	;# 
  1285  0811                     	;# 
  1286  0812                     	;# 
  1287  0813                     	;# 
  1288  0814                     	;# 
  1289  081A                     	;# 
  1290  081A                     	;# 
  1291  081B                     	;# 
  1292  081C                     	;# 
  1293  081C                     	;# 
  1294  081D                     	;# 
  1295  081E                     	;# 
  1296  081F                     	;# 
  1297  088C                     	;# 
  1298  088D                     	;# 
  1299  088E                     	;# 
  1300  088F                     	;# 
  1301  0890                     	;# 
  1302  0891                     	;# 
  1303  0892                     	;# 
  1304  0893                     	;# 
  1305  0895                     	;# 
  1306  0896                     	;# 
  1307  090C                     	;# 
  1308  090E                     	;# 
  1309  090F                     	;# 
  1310  091F                     	;# 
  1311  098F                     	;# 
  1312  098F                     	;# 
  1313  0990                     	;# 
  1314  0991                     	;# 
  1315  0992                     	;# 
  1316  0993                     	;# 
  1317  0994                     	;# 
  1318  0995                     	;# 
  1319  0996                     	;# 
  1320  0997                     	;# 
  1321  0A19                     	;# 
  1322  0A19                     	;# 
  1323  0A1A                     	;# 
  1324  0A1A                     	;# 
  1325  0A1B                     	;# 
  1326  0A1B                     	;# 
  1327  0A1B                     	;# 
  1328  0A1C                     	;# 
  1329  0A1C                     	;# 
  1330  0A1D                     	;# 
  1331  0A1D                     	;# 
  1332  0A1E                     	;# 
  1333  0A1E                     	;# 
  1334  0A1F                     	;# 
  1335  0A1F                     	;# 
  1336  0A1F                     	;# 
  1337  1E0F                     	;# 
  1338  1E10                     	;# 
  1339  1E11                     	;# 
  1340  1E12                     	;# 
  1341  1E13                     	;# 
  1342  1E14                     	;# 
  1343  1E15                     	;# 
  1344  1E16                     	;# 
  1345  1E17                     	;# 
  1346  1E18                     	;# 
  1347  1E19                     	;# 
  1348  1E1A                     	;# 
  1349  1E1B                     	;# 
  1350  1E1C                     	;# 
  1351  1E1D                     	;# 
  1352  1E1E                     	;# 
  1353  1E1F                     	;# 
  1354  1E20                     	;# 
  1355  1E21                     	;# 
  1356  1E22                     	;# 
  1357  1E23                     	;# 
  1358  1E24                     	;# 
  1359  1E25                     	;# 
  1360  1E26                     	;# 
  1361  1E27                     	;# 
  1362  1E28                     	;# 
  1363  1E29                     	;# 
  1364  1E2A                     	;# 
  1365  1E2B                     	;# 
  1366  1E2C                     	;# 
  1367  1E2D                     	;# 
  1368  1E2E                     	;# 
  1369  1E2F                     	;# 
  1370  1E30                     	;# 
  1371  1E31                     	;# 
  1372  1E32                     	;# 
  1373  1E33                     	;# 
  1374  1E34                     	;# 
  1375  1E35                     	;# 
  1376  1E36                     	;# 
  1377  1E37                     	;# 
  1378  1E8F                     	;# 
  1379  1E90                     	;# 
  1380  1E91                     	;# 
  1381  1E92                     	;# 
  1382  1E93                     	;# 
  1383  1E9C                     	;# 
  1384  1EA1                     	;# 
  1385  1EA2                     	;# 
  1386  1EB1                     	;# 
  1387  1EBB                     	;# 
  1388  1EBC                     	;# 
  1389  1EBD                     	;# 
  1390  1EBE                     	;# 
  1391  1EC3                     	;# 
  1392  1EC5                     	;# 
  1393  1EC6                     	;# 
  1394  1EC7                     	;# 
  1395  1EC8                     	;# 
  1396  1EC9                     	;# 
  1397  1ECA                     	;# 
  1398  1ECB                     	;# 
  1399  1ECC                     	;# 
  1400  1ECD                     	;# 
  1401  1ECE                     	;# 
  1402  1F10                     	;# 
  1403  1F11                     	;# 
  1404  1F12                     	;# 
  1405  1F13                     	;# 
  1406  1F14                     	;# 
  1407  1F15                     	;# 
  1408  1F16                     	;# 
  1409  1F17                     	;# 
  1410  1F18                     	;# 
  1411  1F19                     	;# 
  1412  1F1A                     	;# 
  1413  1F1B                     	;# 
  1414  1F1C                     	;# 
  1415  1F1D                     	;# 
  1416  1F1E                     	;# 
  1417  1F1F                     	;# 
  1418  1F20                     	;# 
  1419  1F21                     	;# 
  1420  1F22                     	;# 
  1421  1F23                     	;# 
  1422  1F24                     	;# 
  1423  1F25                     	;# 
  1424  1F26                     	;# 
  1425  1F27                     	;# 
  1426  1F38                     	;# 
  1427  1F39                     	;# 
  1428  1F3A                     	;# 
  1429  1F3B                     	;# 
  1430  1F3C                     	;# 
  1431  1F3D                     	;# 
  1432  1F3E                     	;# 
  1433  1F3F                     	;# 
  1434  1F43                     	;# 
  1435  1F44                     	;# 
  1436  1F45                     	;# 
  1437  1F46                     	;# 
  1438  1F47                     	;# 
  1439  1F48                     	;# 
  1440  1F49                     	;# 
  1441  1F4A                     	;# 
  1442  1F4E                     	;# 
  1443  1F4F                     	;# 
  1444  1F50                     	;# 
  1445  1F51                     	;# 
  1446  1F52                     	;# 
  1447  1F53                     	;# 
  1448  1F54                     	;# 
  1449  1F55                     	;# 
  1450  1F65                     	;# 
  1451  1F68                     	;# 
  1452  1F69                     	;# 
  1453  1F6A                     	;# 
  1454  1F6B                     	;# 
  1455  1FE4                     	;# 
  1456  1FE5                     	;# 
  1457  1FE6                     	;# 
  1458  1FE7                     	;# 
  1459  1FE8                     	;# 
  1460  1FE8                     	;# 
  1461  1FE9                     	;# 
  1462  1FEA                     	;# 
  1463  1FEA                     	;# 
  1464  1FEB                     	;# 
  1465  1FED                     	;# 
  1466  1FEE                     	;# 
  1467  1FEF                     	;# 
  1468  0000                     	;# 
  1469  0001                     	;# 
  1470  0002                     	;# 
  1471  0003                     	;# 
  1472  0004                     	;# 
  1473  0005                     	;# 
  1474  0006                     	;# 
  1475  0007                     	;# 
  1476  0008                     	;# 
  1477  0009                     	;# 
  1478  000A                     	;# 
  1479  000B                     	;# 
  1480  000C                     	;# 
  1481  000D                     	;# 
  1482  000E                     	;# 
  1483  0010                     	;# 
  1484  0012                     	;# 
  1485  0013                     	;# 
  1486  0014                     	;# 
  1487  0016                     	;# 
  1488  0018                     	;# 
  1489  0019                     	;# 
  1490  001A                     	;# 
  1491  009B                     	;# 
  1492  009B                     	;# 
  1493  009C                     	;# 
  1494  009D                     	;# 
  1495  009E                     	;# 
  1496  009F                     	;# 
  1497  0119                     	;# 
  1498  0119                     	;# 
  1499  0119                     	;# 
  1500  011A                     	;# 
  1501  011A                     	;# 
  1502  011A                     	;# 
  1503  011B                     	;# 
  1504  011B                     	;# 
  1505  011B                     	;# 
  1506  011B                     	;# 
  1507  011B                     	;# 
  1508  011C                     	;# 
  1509  011C                     	;# 
  1510  011C                     	;# 
  1511  011D                     	;# 
  1512  011D                     	;# 
  1513  011D                     	;# 
  1514  011E                     	;# 
  1515  011E                     	;# 
  1516  011E                     	;# 
  1517  011F                     	;# 
  1518  011F                     	;# 
  1519  011F                     	;# 
  1520  011F                     	;# 
  1521  011F                     	;# 
  1522  018C                     	;# 
  1523  018D                     	;# 
  1524  018E                     	;# 
  1525  018F                     	;# 
  1526  0190                     	;# 
  1527  0191                     	;# 
  1528  0192                     	;# 
  1529  0196                     	;# 
  1530  0197                     	;# 
  1531  0198                     	;# 
  1532  0199                     	;# 
  1533  019A                     	;# 
  1534  019B                     	;# 
  1535  019C                     	;# 
  1536  020C                     	;# 
  1537  020C                     	;# 
  1538  020D                     	;# 
  1539  020E                     	;# 
  1540  020F                     	;# 
  1541  020F                     	;# 
  1542  0210                     	;# 
  1543  0210                     	;# 
  1544  0211                     	;# 
  1545  0211                     	;# 
  1546  028C                     	;# 
  1547  028C                     	;# 
  1548  028D                     	;# 
  1549  028D                     	;# 
  1550  028E                     	;# 
  1551  028F                     	;# 
  1552  0290                     	;# 
  1553  0291                     	;# 
  1554  030C                     	;# 
  1555  030C                     	;# 
  1556  030D                     	;# 
  1557  030E                     	;# 
  1558  030F                     	;# 
  1559  0310                     	;# 
  1560  0310                     	;# 
  1561  0311                     	;# 
  1562  0312                     	;# 
  1563  0313                     	;# 
  1564  0314                     	;# 
  1565  0314                     	;# 
  1566  0315                     	;# 
  1567  0316                     	;# 
  1568  0318                     	;# 
  1569  0318                     	;# 
  1570  0319                     	;# 
  1571  031A                     	;# 
  1572  031C                     	;# 
  1573  031C                     	;# 
  1574  031D                     	;# 
  1575  031E                     	;# 
  1576  038C                     	;# 
  1577  038C                     	;# 
  1578  038D                     	;# 
  1579  038E                     	;# 
  1580  058C                     	;# 
  1581  058C                     	;# 
  1582  058D                     	;# 
  1583  058E                     	;# 
  1584  058F                     	;# 
  1585  058F                     	;# 
  1586  0590                     	;# 
  1587  0591                     	;# 
  1588  0592                     	;# 
  1589  0593                     	;# 
  1590  059C                     	;# 
  1591  059C                     	;# 
  1592  059D                     	;# 
  1593  059D                     	;# 
  1594  059E                     	;# 
  1595  059F                     	;# 
  1596  060C                     	;# 
  1597  060D                     	;# 
  1598  060E                     	;# 
  1599  060F                     	;# 
  1600  0610                     	;# 
  1601  0611                     	;# 
  1602  0612                     	;# 
  1603  0613                     	;# 
  1604  0614                     	;# 
  1605  070C                     	;# 
  1606  070D                     	;# 
  1607  070E                     	;# 
  1608  070F                     	;# 
  1609  0710                     	;# 
  1610  0711                     	;# 
  1611  0712                     	;# 
  1612  0713                     	;# 
  1613  0716                     	;# 
  1614  0717                     	;# 
  1615  0718                     	;# 
  1616  0719                     	;# 
  1617  071A                     	;# 
  1618  071B                     	;# 
  1619  071C                     	;# 
  1620  071D                     	;# 
  1621  0796                     	;# 
  1622  0797                     	;# 
  1623  0798                     	;# 
  1624  0799                     	;# 
  1625  079A                     	;# 
  1626  079B                     	;# 
  1627  080C                     	;# 
  1628  080D                     	;# 
  1629  080E                     	;# 
  1630  080F                     	;# 
  1631  0810                     	;# 
  1632  0811                     	;# 
  1633  0812                     	;# 
  1634  0813                     	;# 
  1635  0814                     	;# 
  1636  081A                     	;# 
  1637  081A                     	;# 
  1638  081B                     	;# 
  1639  081C                     	;# 
  1640  081C                     	;# 
  1641  081D                     	;# 
  1642  081E                     	;# 
  1643  081F                     	;# 
  1644  088C                     	;# 
  1645  088D                     	;# 
  1646  088E                     	;# 
  1647  088F                     	;# 
  1648  0890                     	;# 
  1649  0891                     	;# 
  1650  0892                     	;# 
  1651  0893                     	;# 
  1652  0895                     	;# 
  1653  0896                     	;# 
  1654  090C                     	;# 
  1655  090E                     	;# 
  1656  090F                     	;# 
  1657  091F                     	;# 
  1658  098F                     	;# 
  1659  098F                     	;# 
  1660  0990                     	;# 
  1661  0991                     	;# 
  1662  0992                     	;# 
  1663  0993                     	;# 
  1664  0994                     	;# 
  1665  0995                     	;# 
  1666  0996                     	;# 
  1667  0997                     	;# 
  1668  0A19                     	;# 
  1669  0A19                     	;# 
  1670  0A1A                     	;# 
  1671  0A1A                     	;# 
  1672  0A1B                     	;# 
  1673  0A1B                     	;# 
  1674  0A1B                     	;# 
  1675  0A1C                     	;# 
  1676  0A1C                     	;# 
  1677  0A1D                     	;# 
  1678  0A1D                     	;# 
  1679  0A1E                     	;# 
  1680  0A1E                     	;# 
  1681  0A1F                     	;# 
  1682  0A1F                     	;# 
  1683  0A1F                     	;# 
  1684  1E0F                     	;# 
  1685  1E10                     	;# 
  1686  1E11                     	;# 
  1687  1E12                     	;# 
  1688  1E13                     	;# 
  1689  1E14                     	;# 
  1690  1E15                     	;# 
  1691  1E16                     	;# 
  1692  1E17                     	;# 
  1693  1E18                     	;# 
  1694  1E19                     	;# 
  1695  1E1A                     	;# 
  1696  1E1B                     	;# 
  1697  1E1C                     	;# 
  1698  1E1D                     	;# 
  1699  1E1E                     	;# 
  1700  1E1F                     	;# 
  1701  1E20                     	;# 
  1702  1E21                     	;# 
  1703  1E22                     	;# 
  1704  1E23                     	;# 
  1705  1E24                     	;# 
  1706  1E25                     	;# 
  1707  1E26                     	;# 
  1708  1E27                     	;# 
  1709  1E28                     	;# 
  1710  1E29                     	;# 
  1711  1E2A                     	;# 
  1712  1E2B                     	;# 
  1713  1E2C                     	;# 
  1714  1E2D                     	;# 
  1715  1E2E                     	;# 
  1716  1E2F                     	;# 
  1717  1E30                     	;# 
  1718  1E31                     	;# 
  1719  1E32                     	;# 
  1720  1E33                     	;# 
  1721  1E34                     	;# 
  1722  1E35                     	;# 
  1723  1E36                     	;# 
  1724  1E37                     	;# 
  1725  1E8F                     	;# 
  1726  1E90                     	;# 
  1727  1E91                     	;# 
  1728  1E92                     	;# 
  1729  1E93                     	;# 
  1730  1E9C                     	;# 
  1731  1EA1                     	;# 
  1732  1EA2                     	;# 
  1733  1EB1                     	;# 
  1734  1EBB                     	;# 
  1735  1EBC                     	;# 
  1736  1EBD                     	;# 
  1737  1EBE                     	;# 
  1738  1EC3                     	;# 
  1739  1EC5                     	;# 
  1740  1EC6                     	;# 
  1741  1EC7                     	;# 
  1742  1EC8                     	;# 
  1743  1EC9                     	;# 
  1744  1ECA                     	;# 
  1745  1ECB                     	;# 
  1746  1ECC                     	;# 
  1747  1ECD                     	;# 
  1748  1ECE                     	;# 
  1749  1F10                     	;# 
  1750  1F11                     	;# 
  1751  1F12                     	;# 
  1752  1F13                     	;# 
  1753  1F14                     	;# 
  1754  1F15                     	;# 
  1755  1F16                     	;# 
  1756  1F17                     	;# 
  1757  1F18                     	;# 
  1758  1F19                     	;# 
  1759  1F1A                     	;# 
  1760  1F1B                     	;# 
  1761  1F1C                     	;# 
  1762  1F1D                     	;# 
  1763  1F1E                     	;# 
  1764  1F1F                     	;# 
  1765  1F20                     	;# 
  1766  1F21                     	;# 
  1767  1F22                     	;# 
  1768  1F23                     	;# 
  1769  1F24                     	;# 
  1770  1F25                     	;# 
  1771  1F26                     	;# 
  1772  1F27                     	;# 
  1773  1F38                     	;# 
  1774  1F39                     	;# 
  1775  1F3A                     	;# 
  1776  1F3B                     	;# 
  1777  1F3C                     	;# 
  1778  1F3D                     	;# 
  1779  1F3E                     	;# 
  1780  1F3F                     	;# 
  1781  1F43                     	;# 
  1782  1F44                     	;# 
  1783  1F45                     	;# 
  1784  1F46                     	;# 
  1785  1F47                     	;# 
  1786  1F48                     	;# 
  1787  1F49                     	;# 
  1788  1F4A                     	;# 
  1789  1F4E                     	;# 
  1790  1F4F                     	;# 
  1791  1F50                     	;# 
  1792  1F51                     	;# 
  1793  1F52                     	;# 
  1794  1F53                     	;# 
  1795  1F54                     	;# 
  1796  1F55                     	;# 
  1797  1F65                     	;# 
  1798  1F68                     	;# 
  1799  1F69                     	;# 
  1800  1F6A                     	;# 
  1801  1F6B                     	;# 
  1802  1FE4                     	;# 
  1803  1FE5                     	;# 
  1804  1FE6                     	;# 
  1805  1FE7                     	;# 
  1806  1FE8                     	;# 
  1807  1FE8                     	;# 
  1808  1FE9                     	;# 
  1809  1FEA                     	;# 
  1810  1FEA                     	;# 
  1811  1FEB                     	;# 
  1812  1FED                     	;# 
  1813  1FEE                     	;# 
  1814  1FEF                     	;# 
  1815  0000                     	;# 
  1816  0001                     	;# 
  1817  0002                     	;# 
  1818  0003                     	;# 
  1819  0004                     	;# 
  1820  0005                     	;# 
  1821  0006                     	;# 
  1822  0007                     	;# 
  1823  0008                     	;# 
  1824  0009                     	;# 
  1825  000A                     	;# 
  1826  000B                     	;# 
  1827  000C                     	;# 
  1828  000D                     	;# 
  1829  000E                     	;# 
  1830  0010                     	;# 
  1831  0012                     	;# 
  1832  0013                     	;# 
  1833  0014                     	;# 
  1834  0016                     	;# 
  1835  0018                     	;# 
  1836  0019                     	;# 
  1837  001A                     	;# 
  1838  009B                     	;# 
  1839  009B                     	;# 
  1840  009C                     	;# 
  1841  009D                     	;# 
  1842  009E                     	;# 
  1843  009F                     	;# 
  1844  0119                     	;# 
  1845  0119                     	;# 
  1846  0119                     	;# 
  1847  011A                     	;# 
  1848  011A                     	;# 
  1849  011A                     	;# 
  1850  011B                     	;# 
  1851  011B                     	;# 
  1852  011B                     	;# 
  1853  011B                     	;# 
  1854  011B                     	;# 
  1855  011C                     	;# 
  1856  011C                     	;# 
  1857  011C                     	;# 
  1858  011D                     	;# 
  1859  011D                     	;# 
  1860  011D                     	;# 
  1861  011E                     	;# 
  1862  011E                     	;# 
  1863  011E                     	;# 
  1864  011F                     	;# 
  1865  011F                     	;# 
  1866  011F                     	;# 
  1867  011F                     	;# 
  1868  011F                     	;# 
  1869  018C                     	;# 
  1870  018D                     	;# 
  1871  018E                     	;# 
  1872  018F                     	;# 
  1873  0190                     	;# 
  1874  0191                     	;# 
  1875  0192                     	;# 
  1876  0196                     	;# 
  1877  0197                     	;# 
  1878  0198                     	;# 
  1879  0199                     	;# 
  1880  019A                     	;# 
  1881  019B                     	;# 
  1882  019C                     	;# 
  1883  020C                     	;# 
  1884  020C                     	;# 
  1885  020D                     	;# 
  1886  020E                     	;# 
  1887  020F                     	;# 
  1888  020F                     	;# 
  1889  0210                     	;# 
  1890  0210                     	;# 
  1891  0211                     	;# 
  1892  0211                     	;# 
  1893  028C                     	;# 
  1894  028C                     	;# 
  1895  028D                     	;# 
  1896  028D                     	;# 
  1897  028E                     	;# 
  1898  028F                     	;# 
  1899  0290                     	;# 
  1900  0291                     	;# 
  1901  030C                     	;# 
  1902  030C                     	;# 
  1903  030D                     	;# 
  1904  030E                     	;# 
  1905  030F                     	;# 
  1906  0310                     	;# 
  1907  0310                     	;# 
  1908  0311                     	;# 
  1909  0312                     	;# 
  1910  0313                     	;# 
  1911  0314                     	;# 
  1912  0314                     	;# 
  1913  0315                     	;# 
  1914  0316                     	;# 
  1915  0318                     	;# 
  1916  0318                     	;# 
  1917  0319                     	;# 
  1918  031A                     	;# 
  1919  031C                     	;# 
  1920  031C                     	;# 
  1921  031D                     	;# 
  1922  031E                     	;# 
  1923  038C                     	;# 
  1924  038C                     	;# 
  1925  038D                     	;# 
  1926  038E                     	;# 
  1927  058C                     	;# 
  1928  058C                     	;# 
  1929  058D                     	;# 
  1930  058E                     	;# 
  1931  058F                     	;# 
  1932  058F                     	;# 
  1933  0590                     	;# 
  1934  0591                     	;# 
  1935  0592                     	;# 
  1936  0593                     	;# 
  1937  059C                     	;# 
  1938  059C                     	;# 
  1939  059D                     	;# 
  1940  059D                     	;# 
  1941  059E                     	;# 
  1942  059F                     	;# 
  1943  060C                     	;# 
  1944  060D                     	;# 
  1945  060E                     	;# 
  1946  060F                     	;# 
  1947  0610                     	;# 
  1948  0611                     	;# 
  1949  0612                     	;# 
  1950  0613                     	;# 
  1951  0614                     	;# 
  1952  070C                     	;# 
  1953  070D                     	;# 
  1954  070E                     	;# 
  1955  070F                     	;# 
  1956  0710                     	;# 
  1957  0711                     	;# 
  1958  0712                     	;# 
  1959  0713                     	;# 
  1960  0716                     	;# 
  1961  0717                     	;# 
  1962  0718                     	;# 
  1963  0719                     	;# 
  1964  071A                     	;# 
  1965  071B                     	;# 
  1966  071C                     	;# 
  1967  071D                     	;# 
  1968  0796                     	;# 
  1969  0797                     	;# 
  1970  0798                     	;# 
  1971  0799                     	;# 
  1972  079A                     	;# 
  1973  079B                     	;# 
  1974  080C                     	;# 
  1975  080D                     	;# 
  1976  080E                     	;# 
  1977  080F                     	;# 
  1978  0810                     	;# 
  1979  0811                     	;# 
  1980  0812                     	;# 
  1981  0813                     	;# 
  1982  0814                     	;# 
  1983  081A                     	;# 
  1984  081A                     	;# 
  1985  081B                     	;# 
  1986  081C                     	;# 
  1987  081C                     	;# 
  1988  081D                     	;# 
  1989  081E                     	;# 
  1990  081F                     	;# 
  1991  088C                     	;# 
  1992  088D                     	;# 
  1993  088E                     	;# 
  1994  088F                     	;# 
  1995  0890                     	;# 
  1996  0891                     	;# 
  1997  0892                     	;# 
  1998  0893                     	;# 
  1999  0895                     	;# 
  2000  0896                     	;# 
  2001  090C                     	;# 
  2002  090E                     	;# 
  2003  090F                     	;# 
  2004  091F                     	;# 
  2005  098F                     	;# 
  2006  098F                     	;# 
  2007  0990                     	;# 
  2008  0991                     	;# 
  2009  0992                     	;# 
  2010  0993                     	;# 
  2011  0994                     	;# 
  2012  0995                     	;# 
  2013  0996                     	;# 
  2014  0997                     	;# 
  2015  0A19                     	;# 
  2016  0A19                     	;# 
  2017  0A1A                     	;# 
  2018  0A1A                     	;# 
  2019  0A1B                     	;# 
  2020  0A1B                     	;# 
  2021  0A1B                     	;# 
  2022  0A1C                     	;# 
  2023  0A1C                     	;# 
  2024  0A1D                     	;# 
  2025  0A1D                     	;# 
  2026  0A1E                     	;# 
  2027  0A1E                     	;# 
  2028  0A1F                     	;# 
  2029  0A1F                     	;# 
  2030  0A1F                     	;# 
  2031  1E0F                     	;# 
  2032  1E10                     	;# 
  2033  1E11                     	;# 
  2034  1E12                     	;# 
  2035  1E13                     	;# 
  2036  1E14                     	;# 
  2037  1E15                     	;# 
  2038  1E16                     	;# 
  2039  1E17                     	;# 
  2040  1E18                     	;# 
  2041  1E19                     	;# 
  2042  1E1A                     	;# 
  2043  1E1B                     	;# 
  2044  1E1C                     	;# 
  2045  1E1D                     	;# 
  2046  1E1E                     	;# 
  2047  1E1F                     	;# 
  2048  1E20                     	;# 
  2049  1E21                     	;# 
  2050  1E22                     	;# 
  2051  1E23                     	;# 
  2052  1E24                     	;# 
  2053  1E25                     	;# 
  2054  1E26                     	;# 
  2055  1E27                     	;# 
  2056  1E28                     	;# 
  2057  1E29                     	;# 
  2058  1E2A                     	;# 
  2059  1E2B                     	;# 
  2060  1E2C                     	;# 
  2061  1E2D                     	;# 
  2062  1E2E                     	;# 
  2063  1E2F                     	;# 
  2064  1E30                     	;# 
  2065  1E31                     	;# 
  2066  1E32                     	;# 
  2067  1E33                     	;# 
  2068  1E34                     	;# 
  2069  1E35                     	;# 
  2070  1E36                     	;# 
  2071  1E37                     	;# 
  2072  1E8F                     	;# 
  2073  1E90                     	;# 
  2074  1E91                     	;# 
  2075  1E92                     	;# 
  2076  1E93                     	;# 
  2077  1E9C                     	;# 
  2078  1EA1                     	;# 
  2079  1EA2                     	;# 
  2080  1EB1                     	;# 
  2081  1EBB                     	;# 
  2082  1EBC                     	;# 
  2083  1EBD                     	;# 
  2084  1EBE                     	;# 
  2085  1EC3                     	;# 
  2086  1EC5                     	;# 
  2087  1EC6                     	;# 
  2088  1EC7                     	;# 
  2089  1EC8                     	;# 
  2090  1EC9                     	;# 
  2091  1ECA                     	;# 
  2092  1ECB                     	;# 
  2093  1ECC                     	;# 
  2094  1ECD                     	;# 
  2095  1ECE                     	;# 
  2096  1F10                     	;# 
  2097  1F11                     	;# 
  2098  1F12                     	;# 
  2099  1F13                     	;# 
  2100  1F14                     	;# 
  2101  1F15                     	;# 
  2102  1F16                     	;# 
  2103  1F17                     	;# 
  2104  1F18                     	;# 
  2105  1F19                     	;# 
  2106  1F1A                     	;# 
  2107  1F1B                     	;# 
  2108  1F1C                     	;# 
  2109  1F1D                     	;# 
  2110  1F1E                     	;# 
  2111  1F1F                     	;# 
  2112  1F20                     	;# 
  2113  1F21                     	;# 
  2114  1F22                     	;# 
  2115  1F23                     	;# 
  2116  1F24                     	;# 
  2117  1F25                     	;# 
  2118  1F26                     	;# 
  2119  1F27                     	;# 
  2120  1F38                     	;# 
  2121  1F39                     	;# 
  2122  1F3A                     	;# 
  2123  1F3B                     	;# 
  2124  1F3C                     	;# 
  2125  1F3D                     	;# 
  2126  1F3E                     	;# 
  2127  1F3F                     	;# 
  2128  1F43                     	;# 
  2129  1F44                     	;# 
  2130  1F45                     	;# 
  2131  1F46                     	;# 
  2132  1F47                     	;# 
  2133  1F48                     	;# 
  2134  1F49                     	;# 
  2135  1F4A                     	;# 
  2136  1F4E                     	;# 
  2137  1F4F                     	;# 
  2138  1F50                     	;# 
  2139  1F51                     	;# 
  2140  1F52                     	;# 
  2141  1F53                     	;# 
  2142  1F54                     	;# 
  2143  1F55                     	;# 
  2144  1F65                     	;# 
  2145  1F68                     	;# 
  2146  1F69                     	;# 
  2147  1F6A                     	;# 
  2148  1F6B                     	;# 
  2149  1FE4                     	;# 
  2150  1FE5                     	;# 
  2151  1FE6                     	;# 
  2152  1FE7                     	;# 
  2153  1FE8                     	;# 
  2154  1FE8                     	;# 
  2155  1FE9                     	;# 
  2156  1FEA                     	;# 
  2157  1FEA                     	;# 
  2158  1FEB                     	;# 
  2159  1FED                     	;# 
  2160  1FEE                     	;# 
  2161  1FEF                     	;# 
  2162  0000                     	;# 
  2163  0001                     	;# 
  2164  0002                     	;# 
  2165  0003                     	;# 
  2166  0004                     	;# 
  2167  0005                     	;# 
  2168  0006                     	;# 
  2169  0007                     	;# 
  2170  0008                     	;# 
  2171  0009                     	;# 
  2172  000A                     	;# 
  2173  000B                     	;# 
  2174  000C                     	;# 
  2175  000D                     	;# 
  2176  000E                     	;# 
  2177  0010                     	;# 
  2178  0012                     	;# 
  2179  0013                     	;# 
  2180  0014                     	;# 
  2181  0016                     	;# 
  2182  0018                     	;# 
  2183  0019                     	;# 
  2184  001A                     	;# 
  2185  009B                     	;# 
  2186  009B                     	;# 
  2187  009C                     	;# 
  2188  009D                     	;# 
  2189  009E                     	;# 
  2190  009F                     	;# 
  2191  0119                     	;# 
  2192  0119                     	;# 
  2193  0119                     	;# 
  2194  011A                     	;# 
  2195  011A                     	;# 
  2196  011A                     	;# 
  2197  011B                     	;# 
  2198  011B                     	;# 
  2199  011B                     	;# 
  2200  011B                     	;# 
  2201  011B                     	;# 
  2202  011C                     	;# 
  2203  011C                     	;# 
  2204  011C                     	;# 
  2205  011D                     	;# 
  2206  011D                     	;# 
  2207  011D                     	;# 
  2208  011E                     	;# 
  2209  011E                     	;# 
  2210  011E                     	;# 
  2211  011F                     	;# 
  2212  011F                     	;# 
  2213  011F                     	;# 
  2214  011F                     	;# 
  2215  011F                     	;# 
  2216  018C                     	;# 
  2217  018D                     	;# 
  2218  018E                     	;# 
  2219  018F                     	;# 
  2220  0190                     	;# 
  2221  0191                     	;# 
  2222  0192                     	;# 
  2223  0196                     	;# 
  2224  0197                     	;# 
  2225  0198                     	;# 
  2226  0199                     	;# 
  2227  019A                     	;# 
  2228  019B                     	;# 
  2229  019C                     	;# 
  2230  020C                     	;# 
  2231  020C                     	;# 
  2232  020D                     	;# 
  2233  020E                     	;# 
  2234  020F                     	;# 
  2235  020F                     	;# 
  2236  0210                     	;# 
  2237  0210                     	;# 
  2238  0211                     	;# 
  2239  0211                     	;# 
  2240  028C                     	;# 
  2241  028C                     	;# 
  2242  028D                     	;# 
  2243  028D                     	;# 
  2244  028E                     	;# 
  2245  028F                     	;# 
  2246  0290                     	;# 
  2247  0291                     	;# 
  2248  030C                     	;# 
  2249  030C                     	;# 
  2250  030D                     	;# 
  2251  030E                     	;# 
  2252  030F                     	;# 
  2253  0310                     	;# 
  2254  0310                     	;# 
  2255  0311                     	;# 
  2256  0312                     	;# 
  2257  0313                     	;# 
  2258  0314                     	;# 
  2259  0314                     	;# 
  2260  0315                     	;# 
  2261  0316                     	;# 
  2262  0318                     	;# 
  2263  0318                     	;# 
  2264  0319                     	;# 
  2265  031A                     	;# 
  2266  031C                     	;# 
  2267  031C                     	;# 
  2268  031D                     	;# 
  2269  031E                     	;# 
  2270  038C                     	;# 
  2271  038C                     	;# 
  2272  038D                     	;# 
  2273  038E                     	;# 
  2274  058C                     	;# 
  2275  058C                     	;# 
  2276  058D                     	;# 
  2277  058E                     	;# 
  2278  058F                     	;# 
  2279  058F                     	;# 
  2280  0590                     	;# 
  2281  0591                     	;# 
  2282  0592                     	;# 
  2283  0593                     	;# 
  2284  059C                     	;# 
  2285  059C                     	;# 
  2286  059D                     	;# 
  2287  059D                     	;# 
  2288  059E                     	;# 
  2289  059F                     	;# 
  2290  060C                     	;# 
  2291  060D                     	;# 
  2292  060E                     	;# 
  2293  060F                     	;# 
  2294  0610                     	;# 
  2295  0611                     	;# 
  2296  0612                     	;# 
  2297  0613                     	;# 
  2298  0614                     	;# 
  2299  070C                     	;# 
  2300  070D                     	;# 
  2301  070E                     	;# 
  2302  070F                     	;# 
  2303  0710                     	;# 
  2304  0711                     	;# 
  2305  0712                     	;# 
  2306  0713                     	;# 
  2307  0716                     	;# 
  2308  0717                     	;# 
  2309  0718                     	;# 
  2310  0719                     	;# 
  2311  071A                     	;# 
  2312  071B                     	;# 
  2313  071C                     	;# 
  2314  071D                     	;# 
  2315  0796                     	;# 
  2316  0797                     	;# 
  2317  0798                     	;# 
  2318  0799                     	;# 
  2319  079A                     	;# 
  2320  079B                     	;# 
  2321  080C                     	;# 
  2322  080D                     	;# 
  2323  080E                     	;# 
  2324  080F                     	;# 
  2325  0810                     	;# 
  2326  0811                     	;# 
  2327  0812                     	;# 
  2328  0813                     	;# 
  2329  0814                     	;# 
  2330  081A                     	;# 
  2331  081A                     	;# 
  2332  081B                     	;# 
  2333  081C                     	;# 
  2334  081C                     	;# 
  2335  081D                     	;# 
  2336  081E                     	;# 
  2337  081F                     	;# 
  2338  088C                     	;# 
  2339  088D                     	;# 
  2340  088E                     	;# 
  2341  088F                     	;# 
  2342  0890                     	;# 
  2343  0891                     	;# 
  2344  0892                     	;# 
  2345  0893                     	;# 
  2346  0895                     	;# 
  2347  0896                     	;# 
  2348  090C                     	;# 
  2349  090E                     	;# 
  2350  090F                     	;# 
  2351  091F                     	;# 
  2352  098F                     	;# 
  2353  098F                     	;# 
  2354  0990                     	;# 
  2355  0991                     	;# 
  2356  0992                     	;# 
  2357  0993                     	;# 
  2358  0994                     	;# 
  2359  0995                     	;# 
  2360  0996                     	;# 
  2361  0997                     	;# 
  2362  0A19                     	;# 
  2363  0A19                     	;# 
  2364  0A1A                     	;# 
  2365  0A1A                     	;# 
  2366  0A1B                     	;# 
  2367  0A1B                     	;# 
  2368  0A1B                     	;# 
  2369  0A1C                     	;# 
  2370  0A1C                     	;# 
  2371  0A1D                     	;# 
  2372  0A1D                     	;# 
  2373  0A1E                     	;# 
  2374  0A1E                     	;# 
  2375  0A1F                     	;# 
  2376  0A1F                     	;# 
  2377  0A1F                     	;# 
  2378  1E0F                     	;# 
  2379  1E10                     	;# 
  2380  1E11                     	;# 
  2381  1E12                     	;# 
  2382  1E13                     	;# 
  2383  1E14                     	;# 
  2384  1E15                     	;# 
  2385  1E16                     	;# 
  2386  1E17                     	;# 
  2387  1E18                     	;# 
  2388  1E19                     	;# 
  2389  1E1A                     	;# 
  2390  1E1B                     	;# 
  2391  1E1C                     	;# 
  2392  1E1D                     	;# 
  2393  1E1E                     	;# 
  2394  1E1F                     	;# 
  2395  1E20                     	;# 
  2396  1E21                     	;# 
  2397  1E22                     	;# 
  2398  1E23                     	;# 
  2399  1E24                     	;# 
  2400  1E25                     	;# 
  2401  1E26                     	;# 
  2402  1E27                     	;# 
  2403  1E28                     	;# 
  2404  1E29                     	;# 
  2405  1E2A                     	;# 
  2406  1E2B                     	;# 
  2407  1E2C                     	;# 
  2408  1E2D                     	;# 
  2409  1E2E                     	;# 
  2410  1E2F                     	;# 
  2411  1E30                     	;# 
  2412  1E31                     	;# 
  2413  1E32                     	;# 
  2414  1E33                     	;# 
  2415  1E34                     	;# 
  2416  1E35                     	;# 
  2417  1E36                     	;# 
  2418  1E37                     	;# 
  2419  1E8F                     	;# 
  2420  1E90                     	;# 
  2421  1E91                     	;# 
  2422  1E92                     	;# 
  2423  1E93                     	;# 
  2424  1E9C                     	;# 
  2425  1EA1                     	;# 
  2426  1EA2                     	;# 
  2427  1EB1                     	;# 
  2428  1EBB                     	;# 
  2429  1EBC                     	;# 
  2430  1EBD                     	;# 
  2431  1EBE                     	;# 
  2432  1EC3                     	;# 
  2433  1EC5                     	;# 
  2434  1EC6                     	;# 
  2435  1EC7                     	;# 
  2436  1EC8                     	;# 
  2437  1EC9                     	;# 
  2438  1ECA                     	;# 
  2439  1ECB                     	;# 
  2440  1ECC                     	;# 
  2441  1ECD                     	;# 
  2442  1ECE                     	;# 
  2443  1F10                     	;# 
  2444  1F11                     	;# 
  2445  1F12                     	;# 
  2446  1F13                     	;# 
  2447  1F14                     	;# 
  2448  1F15                     	;# 
  2449  1F16                     	;# 
  2450  1F17                     	;# 
  2451  1F18                     	;# 
  2452  1F19                     	;# 
  2453  1F1A                     	;# 
  2454  1F1B                     	;# 
  2455  1F1C                     	;# 
  2456  1F1D                     	;# 
  2457  1F1E                     	;# 
  2458  1F1F                     	;# 
  2459  1F20                     	;# 
  2460  1F21                     	;# 
  2461  1F22                     	;# 
  2462  1F23                     	;# 
  2463  1F24                     	;# 
  2464  1F25                     	;# 
  2465  1F26                     	;# 
  2466  1F27                     	;# 
  2467  1F38                     	;# 
  2468  1F39                     	;# 
  2469  1F3A                     	;# 
  2470  1F3B                     	;# 
  2471  1F3C                     	;# 
  2472  1F3D                     	;# 
  2473  1F3E                     	;# 
  2474  1F3F                     	;# 
  2475  1F43                     	;# 
  2476  1F44                     	;# 
  2477  1F45                     	;# 
  2478  1F46                     	;# 
  2479  1F47                     	;# 
  2480  1F48                     	;# 
  2481  1F49                     	;# 
  2482  1F4A                     	;# 
  2483  1F4E                     	;# 
  2484  1F4F                     	;# 
  2485  1F50                     	;# 
  2486  1F51                     	;# 
  2487  1F52                     	;# 
  2488  1F53                     	;# 
  2489  1F54                     	;# 
  2490  1F55                     	;# 
  2491  1F65                     	;# 
  2492  1F68                     	;# 
  2493  1F69                     	;# 
  2494  1F6A                     	;# 
  2495  1F6B                     	;# 
  2496  1FE4                     	;# 
  2497  1FE5                     	;# 
  2498  1FE6                     	;# 
  2499  1FE7                     	;# 
  2500  1FE8                     	;# 
  2501  1FE8                     	;# 
  2502  1FE9                     	;# 
  2503  1FEA                     	;# 
  2504  1FEA                     	;# 
  2505  1FEB                     	;# 
  2506  1FED                     	;# 
  2507  1FEE                     	;# 
  2508  1FEF                     	;# 
  2509  0000                     	;# 
  2510  0001                     	;# 
  2511  0002                     	;# 
  2512  0003                     	;# 
  2513  0004                     	;# 
  2514  0005                     	;# 
  2515  0006                     	;# 
  2516  0007                     	;# 
  2517  0008                     	;# 
  2518  0009                     	;# 
  2519  000A                     	;# 
  2520  000B                     	;# 
  2521  000C                     	;# 
  2522  000D                     	;# 
  2523  000E                     	;# 
  2524  0010                     	;# 
  2525  0012                     	;# 
  2526  0013                     	;# 
  2527  0014                     	;# 
  2528  0016                     	;# 
  2529  0018                     	;# 
  2530  0019                     	;# 
  2531  001A                     	;# 
  2532  009B                     	;# 
  2533  009B                     	;# 
  2534  009C                     	;# 
  2535  009D                     	;# 
  2536  009E                     	;# 
  2537  009F                     	;# 
  2538  0119                     	;# 
  2539  0119                     	;# 
  2540  0119                     	;# 
  2541  011A                     	;# 
  2542  011A                     	;# 
  2543  011A                     	;# 
  2544  011B                     	;# 
  2545  011B                     	;# 
  2546  011B                     	;# 
  2547  011B                     	;# 
  2548  011B                     	;# 
  2549  011C                     	;# 
  2550  011C                     	;# 
  2551  011C                     	;# 
  2552  011D                     	;# 
  2553  011D                     	;# 
  2554  011D                     	;# 
  2555  011E                     	;# 
  2556  011E                     	;# 
  2557  011E                     	;# 
  2558  011F                     	;# 
  2559  011F                     	;# 
  2560  011F                     	;# 
  2561  011F                     	;# 
  2562  011F                     	;# 
  2563  018C                     	;# 
  2564  018D                     	;# 
  2565  018E                     	;# 
  2566  018F                     	;# 
  2567  0190                     	;# 
  2568  0191                     	;# 
  2569  0192                     	;# 
  2570  0196                     	;# 
  2571  0197                     	;# 
  2572  0198                     	;# 
  2573  0199                     	;# 
  2574  019A                     	;# 
  2575  019B                     	;# 
  2576  019C                     	;# 
  2577  020C                     	;# 
  2578  020C                     	;# 
  2579  020D                     	;# 
  2580  020E                     	;# 
  2581  020F                     	;# 
  2582  020F                     	;# 
  2583  0210                     	;# 
  2584  0210                     	;# 
  2585  0211                     	;# 
  2586  0211                     	;# 
  2587  028C                     	;# 
  2588  028C                     	;# 
  2589  028D                     	;# 
  2590  028D                     	;# 
  2591  028E                     	;# 
  2592  028F                     	;# 
  2593  0290                     	;# 
  2594  0291                     	;# 
  2595  030C                     	;# 
  2596  030C                     	;# 
  2597  030D                     	;# 
  2598  030E                     	;# 
  2599  030F                     	;# 
  2600  0310                     	;# 
  2601  0310                     	;# 
  2602  0311                     	;# 
  2603  0312                     	;# 
  2604  0313                     	;# 
  2605  0314                     	;# 
  2606  0314                     	;# 
  2607  0315                     	;# 
  2608  0316                     	;# 
  2609  0318                     	;# 
  2610  0318                     	;# 
  2611  0319                     	;# 
  2612  031A                     	;# 
  2613  031C                     	;# 
  2614  031C                     	;# 
  2615  031D                     	;# 
  2616  031E                     	;# 
  2617  038C                     	;# 
  2618  038C                     	;# 
  2619  038D                     	;# 
  2620  038E                     	;# 
  2621  058C                     	;# 
  2622  058C                     	;# 
  2623  058D                     	;# 
  2624  058E                     	;# 
  2625  058F                     	;# 
  2626  058F                     	;# 
  2627  0590                     	;# 
  2628  0591                     	;# 
  2629  0592                     	;# 
  2630  0593                     	;# 
  2631  059C                     	;# 
  2632  059C                     	;# 
  2633  059D                     	;# 
  2634  059D                     	;# 
  2635  059E                     	;# 
  2636  059F                     	;# 
  2637  060C                     	;# 
  2638  060D                     	;# 
  2639  060E                     	;# 
  2640  060F                     	;# 
  2641  0610                     	;# 
  2642  0611                     	;# 
  2643  0612                     	;# 
  2644  0613                     	;# 
  2645  0614                     	;# 
  2646  070C                     	;# 
  2647  070D                     	;# 
  2648  070E                     	;# 
  2649  070F                     	;# 
  2650  0710                     	;# 
  2651  0711                     	;# 
  2652  0712                     	;# 
  2653  0713                     	;# 
  2654  0716                     	;# 
  2655  0717                     	;# 
  2656  0718                     	;# 
  2657  0719                     	;# 
  2658  071A                     	;# 
  2659  071B                     	;# 
  2660  071C                     	;# 
  2661  071D                     	;# 
  2662  0796                     	;# 
  2663  0797                     	;# 
  2664  0798                     	;# 
  2665  0799                     	;# 
  2666  079A                     	;# 
  2667  079B                     	;# 
  2668  080C                     	;# 
  2669  080D                     	;# 
  2670  080E                     	;# 
  2671  080F                     	;# 
  2672  0810                     	;# 
  2673  0811                     	;# 
  2674  0812                     	;# 
  2675  0813                     	;# 
  2676  0814                     	;# 
  2677  081A                     	;# 
  2678  081A                     	;# 
  2679  081B                     	;# 
  2680  081C                     	;# 
  2681  081C                     	;# 
  2682  081D                     	;# 
  2683  081E                     	;# 
  2684  081F                     	;# 
  2685  088C                     	;# 
  2686  088D                     	;# 
  2687  088E                     	;# 
  2688  088F                     	;# 
  2689  0890                     	;# 
  2690  0891                     	;# 
  2691  0892                     	;# 
  2692  0893                     	;# 
  2693  0895                     	;# 
  2694  0896                     	;# 
  2695  090C                     	;# 
  2696  090E                     	;# 
  2697  090F                     	;# 
  2698  091F                     	;# 
  2699  098F                     	;# 
  2700  098F                     	;# 
  2701  0990                     	;# 
  2702  0991                     	;# 
  2703  0992                     	;# 
  2704  0993                     	;# 
  2705  0994                     	;# 
  2706  0995                     	;# 
  2707  0996                     	;# 
  2708  0997                     	;# 
  2709  0A19                     	;# 
  2710  0A19                     	;# 
  2711  0A1A                     	;# 
  2712  0A1A                     	;# 
  2713  0A1B                     	;# 
  2714  0A1B                     	;# 
  2715  0A1B                     	;# 
  2716  0A1C                     	;# 
  2717  0A1C                     	;# 
  2718  0A1D                     	;# 
  2719  0A1D                     	;# 
  2720  0A1E                     	;# 
  2721  0A1E                     	;# 
  2722  0A1F                     	;# 
  2723  0A1F                     	;# 
  2724  0A1F                     	;# 
  2725  1E0F                     	;# 
  2726  1E10                     	;# 
  2727  1E11                     	;# 
  2728  1E12                     	;# 
  2729  1E13                     	;# 
  2730  1E14                     	;# 
  2731  1E15                     	;# 
  2732  1E16                     	;# 
  2733  1E17                     	;# 
  2734  1E18                     	;# 
  2735  1E19                     	;# 
  2736  1E1A                     	;# 
  2737  1E1B                     	;# 
  2738  1E1C                     	;# 
  2739  1E1D                     	;# 
  2740  1E1E                     	;# 
  2741  1E1F                     	;# 
  2742  1E20                     	;# 
  2743  1E21                     	;# 
  2744  1E22                     	;# 
  2745  1E23                     	;# 
  2746  1E24                     	;# 
  2747  1E25                     	;# 
  2748  1E26                     	;# 
  2749  1E27                     	;# 
  2750  1E28                     	;# 
  2751  1E29                     	;# 
  2752  1E2A                     	;# 
  2753  1E2B                     	;# 
  2754  1E2C                     	;# 
  2755  1E2D                     	;# 
  2756  1E2E                     	;# 
  2757  1E2F                     	;# 
  2758  1E30                     	;# 
  2759  1E31                     	;# 
  2760  1E32                     	;# 
  2761  1E33                     	;# 
  2762  1E34                     	;# 
  2763  1E35                     	;# 
  2764  1E36                     	;# 
  2765  1E37                     	;# 
  2766  1E8F                     	;# 
  2767  1E90                     	;# 
  2768  1E91                     	;# 
  2769  1E92                     	;# 
  2770  1E93                     	;# 
  2771  1E9C                     	;# 
  2772  1EA1                     	;# 
  2773  1EA2                     	;# 
  2774  1EB1                     	;# 
  2775  1EBB                     	;# 
  2776  1EBC                     	;# 
  2777  1EBD                     	;# 
  2778  1EBE                     	;# 
  2779  1EC3                     	;# 
  2780  1EC5                     	;# 
  2781  1EC6                     	;# 
  2782  1EC7                     	;# 
  2783  1EC8                     	;# 
  2784  1EC9                     	;# 
  2785  1ECA                     	;# 
  2786  1ECB                     	;# 
  2787  1ECC                     	;# 
  2788  1ECD                     	;# 
  2789  1ECE                     	;# 
  2790  1F10                     	;# 
  2791  1F11                     	;# 
  2792  1F12                     	;# 
  2793  1F13                     	;# 
  2794  1F14                     	;# 
  2795  1F15                     	;# 
  2796  1F16                     	;# 
  2797  1F17                     	;# 
  2798  1F18                     	;# 
  2799  1F19                     	;# 
  2800  1F1A                     	;# 
  2801  1F1B                     	;# 
  2802  1F1C                     	;# 
  2803  1F1D                     	;# 
  2804  1F1E                     	;# 
  2805  1F1F                     	;# 
  2806  1F20                     	;# 
  2807  1F21                     	;# 
  2808  1F22                     	;# 
  2809  1F23                     	;# 
  2810  1F24                     	;# 
  2811  1F25                     	;# 
  2812  1F26                     	;# 
  2813  1F27                     	;# 
  2814  1F38                     	;# 
  2815  1F39                     	;# 
  2816  1F3A                     	;# 
  2817  1F3B                     	;# 
  2818  1F3C                     	;# 
  2819  1F3D                     	;# 
  2820  1F3E                     	;# 
  2821  1F3F                     	;# 
  2822  1F43                     	;# 
  2823  1F44                     	;# 
  2824  1F45                     	;# 
  2825  1F46                     	;# 
  2826  1F47                     	;# 
  2827  1F48                     	;# 
  2828  1F49                     	;# 
  2829  1F4A                     	;# 
  2830  1F4E                     	;# 
  2831  1F4F                     	;# 
  2832  1F50                     	;# 
  2833  1F51                     	;# 
  2834  1F52                     	;# 
  2835  1F53                     	;# 
  2836  1F54                     	;# 
  2837  1F55                     	;# 
  2838  1F65                     	;# 
  2839  1F68                     	;# 
  2840  1F69                     	;# 
  2841  1F6A                     	;# 
  2842  1F6B                     	;# 
  2843  1FE4                     	;# 
  2844  1FE5                     	;# 
  2845  1FE6                     	;# 
  2846  1FE7                     	;# 
  2847  1FE8                     	;# 
  2848  1FE8                     	;# 
  2849  1FE9                     	;# 
  2850  1FEA                     	;# 
  2851  1FEA                     	;# 
  2852  1FEB                     	;# 
  2853  1FED                     	;# 
  2854  1FEE                     	;# 
  2855  1FEF                     	;# 
  2856                           
  2857                           	psect	idataBANK0
  2858  043E                     __pidataBANK0:	
  2859                           
  2860                           ;initializer for _counter
  2861  043E  3401               	retlw	1
  2862  043F  3400               	retlw	0
  2863                           
  2864                           ;initializer for _idleStart
  2865  0440  3401               	retlw	1
  2866                           
  2867                           	psect	stringtext1
  2868  0432                     __pstringtext1:	
  2869  0432                     _spi1_configuration:	
  2870  0432  3405               	retlw	5
  2871  0433  3440               	retlw	64
  2872  0434  3400               	retlw	0
  2873  0435  3401               	retlw	1
  2874  0436                     __end_of_spi1_configuration:	
  2875                           
  2876                           	psect	nvBANK0
  2877  0044                     __pnvBANK0:	
  2878  0044                     _MSSP1_InterruptHandler:	
  2879  0044                     	ds	2
  2880  000E                     _PORTC	set	14
  2881  000C                     _PORTA	set	12
  2882  000D                     _PORTB	set	13
  2883  000B                     _INTCONbits	set	11
  2884  0014                     _TRISCbits	set	20
  2885  0014                     _TRISC	set	20
  2886  0013                     _TRISB	set	19
  2887  0012                     _TRISA	set	18
  2888  001A                     _LATC	set	26
  2889  0019                     _LATB	set	25
  2890  0018                     _LATA	set	24
  2891  0119                     _RC1REG	set	281
  2892  011D                     _RC1STAbits	set	285
  2893  011A                     _TX1REG	set	282
  2894  011E                     _TX1STAbits	set	286
  2895  011C                     _SP1BRGH	set	284
  2896  011B                     _SP1BRGL	set	283
  2897  011E                     _TX1STA	set	286
  2898  011D                     _RC1STA	set	285
  2899  011F                     _BAUD1CON	set	287
  2900  0192                     _SSP1CON3bits	set	402
  2901  018C                     _SSP1BUF	set	396
  2902  0191                     _SSP1CON2	set	401
  2903  0190                     _SSP1CON1bits	set	400
  2904  018D                     _SSP1ADD	set	397
  2905  0190                     _SSP1CON1	set	400
  2906  018F                     _SSP1STAT	set	399
  2907  059E                     _T0CON0bits	set	1438
  2908  059E                     _T0CON0	set	1438
  2909  059C                     _TMR0L	set	1436
  2910  059D                     _TMR0H	set	1437
  2911  059F                     _T0CON1	set	1439
  2912  070C                     _PIR0bits	set	1804
  2913  0716                     _PIE0bits	set	1814
  2914  070F                     _PIR3bits	set	1807
  2915  0719                     _PIE3bits	set	1817
  2916  079B                     _PMD5	set	1947
  2917  079A                     _PMD4	set	1946
  2918  0799                     _PMD3	set	1945
  2919  0798                     _PMD2	set	1944
  2920  0797                     _PMD1	set	1943
  2921  0796                     _PMD0	set	1942
  2922  0892                     _OSCTUNE	set	2194
  2923  0890                     _OSCSTAT	set	2192
  2924  0893                     _OSCFRQ	set	2195
  2925  0891                     _OSCEN	set	2193
  2926  088F                     _OSCCON3	set	2191
  2927  088D                     _OSCCON1	set	2189
  2928  4480                     _PLLR	set	17536
  2929  1E10                     _CLC1CONbits	set	7696
  2930  1E10                     _CLC1CON	set	7696
  2931  1E19                     _CLC1GLS3	set	7705
  2932  1E18                     _CLC1GLS2	set	7704
  2933  1E17                     _CLC1GLS1	set	7703
  2934  1E16                     _CLC1GLS0	set	7702
  2935  1E15                     _CLC1SEL3	set	7701
  2936  1E14                     _CLC1SEL2	set	7700
  2937  1E13                     _CLC1SEL1	set	7699
  2938  1E12                     _CLC1SEL0	set	7698
  2939  1E11                     _CLC1POL	set	7697
  2940  1ECB                     _RX1DTPPS	set	7883
  2941  1EC6                     _SSP1DATPPS	set	7878
  2942  1EBB                     _CLCIN0PPS	set	7867
  2943  1EC5                     _SSP1CLKPPS	set	7877
  2944  1F21                     _RC1PPS	set	7969
  2945  1F26                     _RC6PPS	set	7974
  2946  1F25                     _RC5PPS	set	7973
  2947  1F24                     _RC4PPS	set	7972
  2948  1F68                     _INLVLE	set	8040
  2949  1F52                     _INLVLC	set	8018
  2950  1F47                     _INLVLB	set	8007
  2951  1F3C                     _INLVLA	set	7996
  2952  1F51                     _SLRCONC	set	8017
  2953  1F46                     _SLRCONB	set	8006
  2954  1F3B                     _SLRCONA	set	7995
  2955  1F50                     _ODCONC	set	8016
  2956  1F45                     _ODCONB	set	8005
  2957  1F3A                     _ODCONA	set	7994
  2958  1F4F                     _WPUC	set	8015
  2959  1F39                     _WPUA	set	7993
  2960  1F44                     _WPUB	set	8004
  2961  1F65                     _WPUE	set	8037
  2962  1F38                     _ANSELA	set	7992
  2963  1F43                     _ANSELB	set	8003
  2964  1F4E                     _ANSELC	set	8014
  2965                           
  2966                           ; #config settings
  2967  0000                     
  2968                           	psect	cinit
  2969  0039                     start_initialization:	
  2970  0039                     __initialization:	
  2971                           
  2972                           ; Initialize objects allocated to BANK0
  2973  0039  3184  243E  3180   	fcall	__pidataBANK0	;fetch initializer
  2974  003C  00C1               	movwf	__pdataBANK0& (0+127)
  2975  003D  3184  243F  3180   	fcall	__pidataBANK0+1	;fetch initializer
  2976  0040  00C2               	movwf	(__pdataBANK0+1)& (0+127)
  2977  0041  3184  2440  3180   	fcall	__pidataBANK0+2	;fetch initializer
  2978  0044  00C3               	movwf	(__pdataBANK0+2)& (0+127)
  2979                           
  2980                           ; Clear objects allocated to COMMON
  2981  0045  01F0               	clrf	__pbssCOMMON& (0+127)
  2982  0046  01F1               	clrf	(__pbssCOMMON+1)& (0+127)
  2983  0047  01F2               	clrf	(__pbssCOMMON+2)& (0+127)
  2984  0048  01F3               	clrf	(__pbssCOMMON+3)& (0+127)
  2985  0049  01F4               	clrf	(__pbssCOMMON+4)& (0+127)
  2986  004A  01F5               	clrf	(__pbssCOMMON+5)& (0+127)
  2987                           
  2988                           ; Clear objects allocated to BANK0
  2989  004B  3020               	movlw	low __pbssBANK0
  2990  004C  0084               	movwf	4
  2991  004D  3000               	movlw	high __pbssBANK0
  2992  004E  0085               	movwf	5
  2993  004F  301C               	movlw	28
  2994  0050  3184  2408  3180   	fcall	clear_ram0
  2995  0053                     end_of_initialization:	
  2996                           ;End of C runtime variable initialization code
  2997                           
  2998  0053                     __end_of__initialization:	
  2999  0053  107E               	bcf	int$flags,0	;clear compiler interrupt flag (level 1)
  3000  0054  0140               	movlb	0
  3001  0055  3181  29EF         	ljmp	_main	;jump to C main() function
  3002                           
  3003                           	psect	bssCOMMON
  3004  0070                     __pbssCOMMON:	
  3005  0070                     _nextState:	
  3006  0070                     	ds	1
  3007  0071                     _previousState:	
  3008  0071                     	ds	1
  3009  0072                     _previousData:	
  3010  0072                     	ds	1
  3011  0073                     _eusart1RxCount:	
  3012  0073                     	ds	1
  3013  0074                     _eusart1RxTail:	
  3014  0074                     	ds	1
  3015  0075                     _eusart1RxHead:	
  3016  0075                     	ds	1
  3017                           
  3018                           	psect	bssBANK0
  3019  0020                     __pbssBANK0:	
  3020  0020                     _eusart1RxStatusBuffer:	
  3021  0020                     	ds	8
  3022  0028                     _eusart1RxBuffer:	
  3023  0028                     	ds	8
  3024  0030                     _EUSART1_ErrorHandler:	
  3025  0030                     	ds	2
  3026  0032                     _EUSART1_OverrunErrorHandler:	
  3027  0032                     	ds	2
  3028  0034                     _EUSART1_FramingErrorHandler:	
  3029  0034                     	ds	2
  3030  0036                     _TMR0_InterruptHandler:	
  3031  0036                     	ds	2
  3032  0038                     _EUSART1_RxDefaultInterruptHandler:	
  3033  0038                     	ds	2
  3034  003A                     _lastData:	
  3035  003A                     	ds	1
  3036  003B                     _eusart1RxLastError:	
  3037  003B                     	ds	1
  3038                           
  3039                           	psect	dataBANK0
  3040  0041                     __pdataBANK0:	
  3041  0041                     _counter:	
  3042  0041                     	ds	2
  3043  0043                     _idleStart:	
  3044  0043                     	ds	1
  3045                           
  3046                           	psect	clrtext
  3047  0408                     clear_ram0:	
  3048                           ;	Called with FSR0 containing the base address, and
  3049                           ;	WREG with the size to clear
  3050                           
  3051  0408  0064               	clrwdt	;clear the watchdog before getting into this loop
  3052  0409                     clrloop0:	
  3053  0409  0180               	clrf	0	;clear RAM location pointed to by FSR
  3054  040A  3101               	addfsr 0,1
  3055  040B  0B89               	decfsz	9,f	;Have we reached the end of clearing yet?
  3056  040C  2C09               	goto	clrloop0	;have we reached the end yet?
  3057  040D  3400               	retlw	0	;all done for this memory range, return
  3058                           
  3059                           	psect	cstackCOMMON
  3060  0076                     __pcstackCOMMON:	
  3061  0076                     ?_PMD_Initialize:	
  3062  0076                     ?_SPI1_Initialize:	
  3063                           ; 1 bytes @ 0x0
  3064                           
  3065  0076                     ?_OSCILLATOR_Initialize:	
  3066                           ; 1 bytes @ 0x0
  3067                           
  3068  0076                     ?_CLC1_Initialize:	
  3069                           ; 1 bytes @ 0x0
  3070                           
  3071  0076                     ?_TMR0_Initialize:	
  3072                           ; 1 bytes @ 0x0
  3073                           
  3074  0076                     ?_EUSART1_Initialize:	
  3075                           ; 1 bytes @ 0x0
  3076                           
  3077  0076                     ?_SPI1_Isr:	
  3078                           ; 1 bytes @ 0x0
  3079                           
  3080  0076                     ??_SPI1_Isr:	
  3081                           ; 1 bytes @ 0x0
  3082                           
  3083  0076                     ?_TMR0_ISR:	
  3084                           ; 1 bytes @ 0x0
  3085                           
  3086  0076                     ?_TMR0_DefaultInterruptHandler:	
  3087                           ; 1 bytes @ 0x0
  3088                           
  3089  0076                     ??_TMR0_DefaultInterruptHandler:	
  3090                           ; 1 bytes @ 0x0
  3091                           
  3092  0076                     ?_EUSART1_Receive_ISR:	
  3093                           ; 1 bytes @ 0x0
  3094                           
  3095  0076                     ?_EUSART1_DefaultFramingErrorHandler:	
  3096                           ; 1 bytes @ 0x0
  3097                           
  3098  0076                     ??_EUSART1_DefaultFramingErrorHandler:	
  3099                           ; 1 bytes @ 0x0
  3100                           
  3101  0076                     ?_EUSART1_DefaultOverrunErrorHandler:	
  3102                           ; 1 bytes @ 0x0
  3103                           
  3104  0076                     ??_EUSART1_DefaultOverrunErrorHandler:	
  3105                           ; 1 bytes @ 0x0
  3106                           
  3107  0076                     ?_EUSART1_DefaultErrorHandler:	
  3108                           ; 1 bytes @ 0x0
  3109                           
  3110  0076                     ?_EUSART1_RxDataHandler:	
  3111                           ; 1 bytes @ 0x0
  3112                           
  3113  0076                     ??_EUSART1_RxDataHandler:	
  3114                           ; 1 bytes @ 0x0
  3115                           
  3116  0076                     ?_PIN_MANAGER_Initialize:	
  3117                           ; 1 bytes @ 0x0
  3118                           
  3119  0076                     ?_SYSTEM_Initialize:	
  3120                           ; 1 bytes @ 0x0
  3121                           
  3122  0076                     ?_INTERRUPT_InterruptManager:	
  3123                           ; 1 bytes @ 0x0
  3124                           
  3125  0076                     ?_EUSART1_Write:	
  3126                           ; 1 bytes @ 0x0
  3127                           
  3128  0076                     ??_EUSART1_Write:	
  3129                           ; 1 bytes @ 0x0
  3130                           
  3131  0076                     ?_setDots:	
  3132                           ; 1 bytes @ 0x0
  3133                           
  3134  0076                     ?_spi1InterruptHandler:	
  3135                           ; 1 bytes @ 0x0
  3136                           
  3137  0076                     ??_spi1InterruptHandler:	
  3138                           ; 1 bytes @ 0x0
  3139                           
  3140  0076                     ?_eusart1RxDataHandler:	
  3141                           ; 1 bytes @ 0x0
  3142                           
  3143  0076                     ?_tmr0InterruptHandler:	
  3144                           ; 1 bytes @ 0x0
  3145                           
  3146  0076                     ?_main:	
  3147                           ; 1 bytes @ 0x0
  3148                           
  3149  0076                     ?i1_setDots:	
  3150                           ; 1 bytes @ 0x0
  3151                           
  3152  0076                     ??i1_setDots:	
  3153                           ; 1 bytes @ 0x0
  3154                           
  3155  0076                     EUSART1_Write@txData:	
  3156                           ; 1 bytes @ 0x0
  3157                           
  3158                           
  3159                           ; 1 bytes @ 0x0
  3160  0076                     	ds	1
  3161  0077                     ??_EUSART1_Receive_ISR:	
  3162  0077                     ??_EUSART1_DefaultErrorHandler:	
  3163                           ; 1 bytes @ 0x1
  3164                           
  3165  0077                     ??_eusart1RxDataHandler:	
  3166                           ; 1 bytes @ 0x1
  3167                           
  3168                           
  3169                           ; 1 bytes @ 0x1
  3170  0077                     	ds	1
  3171  0078                     i1setDots@newData:	
  3172                           
  3173                           ; 1 bytes @ 0x2
  3174  0078                     	ds	1
  3175  0079                     ??_tmr0InterruptHandler:	
  3176                           
  3177                           ; 1 bytes @ 0x3
  3178  0079                     	ds	2
  3179  007B                     ??_TMR0_ISR:	
  3180  007B                     ??_INTERRUPT_InterruptManager:	
  3181                           ; 1 bytes @ 0x5
  3182                           
  3183                           
  3184                           	psect	cstackBANK0
  3185  003C                     __pcstackBANK0:	
  3186                           ; 1 bytes @ 0x5
  3187                           
  3188  003C                     ??_PMD_Initialize:	
  3189  003C                     ??_OSCILLATOR_Initialize:	
  3190                           ; 1 bytes @ 0x0
  3191                           
  3192  003C                     ??_CLC1_Initialize:	
  3193                           ; 1 bytes @ 0x0
  3194                           
  3195  003C                     ?_SPI1_SetInterruptHandler:	
  3196                           ; 1 bytes @ 0x0
  3197                           
  3198  003C                     ?_TMR0_SetInterruptHandler:	
  3199                           ; 1 bytes @ 0x0
  3200                           
  3201  003C                     ?_EUSART1_SetRxInterruptHandler:	
  3202                           ; 1 bytes @ 0x0
  3203                           
  3204  003C                     ?_EUSART1_SetFramingErrorHandler:	
  3205                           ; 1 bytes @ 0x0
  3206                           
  3207  003C                     ?_EUSART1_SetOverrunErrorHandler:	
  3208                           ; 1 bytes @ 0x0
  3209                           
  3210  003C                     ?_EUSART1_SetErrorHandler:	
  3211                           ; 1 bytes @ 0x0
  3212                           
  3213  003C                     ??_PIN_MANAGER_Initialize:	
  3214                           ; 1 bytes @ 0x0
  3215                           
  3216  003C                     ??_setDots:	
  3217                           ; 1 bytes @ 0x0
  3218                           
  3219  003C                     SPI1_SetInterruptHandler@handler:	
  3220                           ; 1 bytes @ 0x0
  3221                           
  3222  003C                     TMR0_SetInterruptHandler@InterruptHandler:	
  3223                           ; 2 bytes @ 0x0
  3224                           
  3225  003C                     EUSART1_SetFramingErrorHandler@interruptHandler:	
  3226                           ; 2 bytes @ 0x0
  3227                           
  3228  003C                     EUSART1_SetOverrunErrorHandler@interruptHandler:	
  3229                           ; 2 bytes @ 0x0
  3230                           
  3231  003C                     EUSART1_SetErrorHandler@interruptHandler:	
  3232                           ; 2 bytes @ 0x0
  3233                           
  3234  003C                     EUSART1_SetRxInterruptHandler@interruptHandler:	
  3235                           ; 2 bytes @ 0x0
  3236                           
  3237                           
  3238                           ; 2 bytes @ 0x0
  3239  003C                     	ds	2
  3240  003E                     ??_SPI1_Initialize:	
  3241  003E                     ??_TMR0_Initialize:	
  3242                           ; 1 bytes @ 0x2
  3243                           
  3244  003E                     ??_EUSART1_Initialize:	
  3245                           ; 1 bytes @ 0x2
  3246                           
  3247  003E                     ??_SPI1_SetInterruptHandler:	
  3248                           ; 1 bytes @ 0x2
  3249                           
  3250  003E                     ??_TMR0_SetInterruptHandler:	
  3251                           ; 1 bytes @ 0x2
  3252                           
  3253  003E                     ??_EUSART1_SetRxInterruptHandler:	
  3254                           ; 1 bytes @ 0x2
  3255                           
  3256  003E                     ??_EUSART1_SetFramingErrorHandler:	
  3257                           ; 1 bytes @ 0x2
  3258                           
  3259  003E                     ??_EUSART1_SetOverrunErrorHandler:	
  3260                           ; 1 bytes @ 0x2
  3261                           
  3262  003E                     ??_EUSART1_SetErrorHandler:	
  3263                           ; 1 bytes @ 0x2
  3264                           
  3265  003E                     ??_SYSTEM_Initialize:	
  3266                           ; 1 bytes @ 0x2
  3267                           
  3268  003E                     setDots@newData:	
  3269                           ; 1 bytes @ 0x2
  3270                           
  3271                           
  3272                           ; 1 bytes @ 0x2
  3273  003E                     	ds	1
  3274  003F                     ??_main:	
  3275                           
  3276                           ; 1 bytes @ 0x3
  3277  003F                     	ds	2
  3278                           
  3279                           	psect	maintext
  3280  01EF                     __pmaintext:	
  3281 ;;
  3282 ;;Main: autosize = 0, tempsize = 2, incstack = 0, save=0
  3283 ;;
  3284 ;; *************** function _main *****************
  3285 ;; Defined at:
  3286 ;;		line 124 in file "main.c"
  3287 ;; Parameters:    Size  Location     Type
  3288 ;;		None
  3289 ;; Auto vars:     Size  Location     Type
  3290 ;;		None
  3291 ;; Return value:  Size  Location     Type
  3292 ;;                  1    wreg      void 
  3293 ;; Registers used:
  3294 ;;		wreg, status,2, status,0, pclath, cstack
  3295 ;; Tracked objects:
  3296 ;;		On entry : B3F/0
  3297 ;;		On exit  : 0/0
  3298 ;;		Unchanged: 0/0
  3299 ;; Data sizes:     COMMON   BANK0   BANK1   BANK2   BANK3   BANK4   BANK5   BANK6   BANK7   BANK8   BANK9  BANK10  BANK1
      +1  BANK12
  3300 ;;      Params:         0       0       0       0       0       0       0       0       0       0       0       0       
      +0       0
  3301 ;;      Locals:         0       0       0       0       0       0       0       0       0       0       0       0       
      +0       0
  3302 ;;      Temps:          0       2       0       0       0       0       0       0       0       0       0       0       
      +0       0
  3303 ;;      Totals:         0       2       0       0       0       0       0       0       0       0       0       0       
      +0       0
  3304 ;;Total ram usage:        2 bytes
  3305 ;; Hardware stack levels required when called:    7
  3306 ;; This function calls:
  3307 ;;		_EUSART1_SetRxInterruptHandler
  3308 ;;		_SPI1_SetInterruptHandler
  3309 ;;		_SYSTEM_Initialize
  3310 ;;		_TMR0_SetInterruptHandler
  3311 ;;		_setDots
  3312 ;; This function is called by:
  3313 ;;		Startup code after reset
  3314 ;; This function uses a non-reentrant model
  3315 ;;
  3316                           
  3317                           
  3318                           ;psect for function _main
  3319  01EF                     _main:	
  3320  01EF                     l1997:	
  3321                           ;incstack = 0
  3322                           ; Regs used in _main: [wreg+status,2+status,0+pclath+cstack]
  3323                           
  3324                           
  3325                           ;main.c: 125:     PORTA = 0x00;
  3326  01EF  0140               	movlb	0	; select bank0
  3327  01F0  018C               	clrf	12	;volatile
  3328                           
  3329                           ;main.c: 126:     PORTB = 0x00;
  3330  01F1  018D               	clrf	13	;volatile
  3331                           
  3332                           ;main.c: 127:     PORTC = 0x00;
  3333  01F2  018E               	clrf	14	;volatile
  3334  01F3                     l1999:	
  3335                           
  3336                           ;main.c: 130:     SYSTEM_Initialize();
  3337  01F3  3183  236D  3181   	fcall	_SYSTEM_Initialize
  3338  01F6                     l2001:	
  3339                           
  3340                           ;main.c: 132:     _delay((unsigned long)((100)*(32000000/4000.0)));
  3341  01F6  3005               	movlw	5
  3342  01F7  0140               	movlb	0	; select bank0
  3343  01F8  00C0               	movwf	??_main+1
  3344  01F9  300F               	movlw	15
  3345  01FA  00BF               	movwf	??_main
  3346  01FB  30F1               	movlw	241
  3347  01FC                     u1017:	
  3348  01FC  0B89               	decfsz	9,f
  3349  01FD  29FC               	goto	u1017
  3350  01FE  0BBF               	decfsz	??_main,f
  3351  01FF  29FC               	goto	u1017
  3352  0200  0BC0               	decfsz	??_main+1,f
  3353  0201  29FC               	goto	u1017
  3354  0202                     l2003:	
  3355                           
  3356                           ;main.c: 133:     setDots(0x00);
  3357  0202  3000               	movlw	0
  3358  0203  3180  2057  3181   	fcall	_setDots
  3359  0206                     l2005:	
  3360                           
  3361                           ;main.c: 134:     _delay((unsigned long)((100)*(32000000/4000.0)));
  3362  0206  3005               	movlw	5
  3363  0207  0140               	movlb	0	; select bank0
  3364  0208  00C0               	movwf	??_main+1
  3365  0209  300F               	movlw	15
  3366  020A  00BF               	movwf	??_main
  3367  020B  30F1               	movlw	241
  3368  020C                     u1027:	
  3369  020C  0B89               	decfsz	9,f
  3370  020D  2A0C               	goto	u1027
  3371  020E  0BBF               	decfsz	??_main,f
  3372  020F  2A0C               	goto	u1027
  3373  0210  0BC0               	decfsz	??_main+1,f
  3374  0211  2A0C               	goto	u1027
  3375  0212                     l2007:	
  3376                           
  3377                           ;main.c: 135:     setDots(0xFF);
  3378  0212  30FF               	movlw	255
  3379  0213  3180  2057  3181   	fcall	_setDots
  3380  0216                     l2009:	
  3381                           
  3382                           ;main.c: 136:     _delay((unsigned long)((100)*(32000000/4000.0)));
  3383  0216  3005               	movlw	5
  3384  0217  0140               	movlb	0	; select bank0
  3385  0218  00C0               	movwf	??_main+1
  3386  0219  300F               	movlw	15
  3387  021A  00BF               	movwf	??_main
  3388  021B  30F1               	movlw	241
  3389  021C                     u1037:	
  3390  021C  0B89               	decfsz	9,f
  3391  021D  2A1C               	goto	u1037
  3392  021E  0BBF               	decfsz	??_main,f
  3393  021F  2A1C               	goto	u1037
  3394  0220  0BC0               	decfsz	??_main+1,f
  3395  0221  2A1C               	goto	u1037
  3396  0222                     l2011:	
  3397                           
  3398                           ;main.c: 137:     setDots(0x00);
  3399  0222  3000               	movlw	0
  3400  0223  3180  2057  3181   	fcall	_setDots
  3401  0226                     l2013:	
  3402                           
  3403                           ;main.c: 138:     _delay((unsigned long)((500)*(32000000/4000.0)));
  3404  0226  3015               	movlw	21
  3405  0227  0140               	movlb	0	; select bank0
  3406  0228  00C0               	movwf	??_main+1
  3407  0229  304B               	movlw	75
  3408  022A  00BF               	movwf	??_main
  3409  022B  30BE               	movlw	190
  3410  022C                     u1047:	
  3411  022C  0B89               	decfsz	9,f
  3412  022D  2A2C               	goto	u1047
  3413  022E  0BBF               	decfsz	??_main,f
  3414  022F  2A2C               	goto	u1047
  3415  0230  0BC0               	decfsz	??_main+1,f
  3416  0231  2A2C               	goto	u1047
  3417  0232  0000               	nop
  3418  0233                     l2015:	
  3419                           
  3420                           ;main.c: 140:     SPI1_SetInterruptHandler(spi1InterruptHandler);
  3421  0233  30E9               	movlw	low _spi1InterruptHandler
  3422  0234  0140               	movlb	0	; select bank0
  3423  0235  00BC               	movwf	SPI1_SetInterruptHandler@handler
  3424  0236  3003               	movlw	high _spi1InterruptHandler
  3425  0237  00BD               	movwf	SPI1_SetInterruptHandler@handler+1
  3426  0238  3184  2414  3181   	fcall	_SPI1_SetInterruptHandler
  3427  023B                     l2017:	
  3428                           
  3429                           ;main.c: 141:     EUSART1_SetRxInterruptHandler(eusart1RxDataHandler);
  3430  023B  30AC               	movlw	low _eusart1RxDataHandler
  3431  023C  0140               	movlb	0	; select bank0
  3432  023D  00BC               	movwf	EUSART1_SetRxInterruptHandler@interruptHandler
  3433  023E  3003               	movlw	high _eusart1RxDataHandler
  3434  023F  00BD               	movwf	EUSART1_SetRxInterruptHandler@interruptHandler+1
  3435  0240  3184  241A  3181   	fcall	_EUSART1_SetRxInterruptHandler
  3436  0243                     l2019:	
  3437                           
  3438                           ;main.c: 142:     TMR0_SetInterruptHandler(tmr0InterruptHandler);
  3439  0243  3099               	movlw	low _tmr0InterruptHandler
  3440  0244  0140               	movlb	0	; select bank0
  3441  0245  00BC               	movwf	TMR0_SetInterruptHandler@InterruptHandler
  3442  0246  3002               	movlw	high _tmr0InterruptHandler
  3443  0247  00BD               	movwf	TMR0_SetInterruptHandler@InterruptHandler+1
  3444  0248  3184  240E  3181   	fcall	_TMR0_SetInterruptHandler
  3445  024B                     l2021:	
  3446                           
  3447                           ;main.c: 143:     SSP1CON3bits.BOEN = 1;
  3448  024B  0143               	movlb	3	; select bank3
  3449  024C  1612               	bsf	18,4	;volatile
  3450  024D                     l2023:	
  3451                           
  3452                           ;main.c: 144:     SSP1CON1bits.SSPEN = 1;
  3453  024D  1690               	bsf	16,5	;volatile
  3454  024E                     l2025:	
  3455                           
  3456                           ;main.c: 149:     (INTCONbits.GIE = 1);
  3457  024E  178B               	bsf	11,7	;volatile
  3458  024F                     l2027:	
  3459                           
  3460                           ;main.c: 152:     (INTCONbits.PEIE = 1);
  3461  024F  170B               	bsf	11,6	;volatile
  3462  0250                     l2029:	
  3463                           
  3464                           ;main.c: 163:         _delay((unsigned long)((200)*(32000000/4000.0)));
  3465  0250  3009               	movlw	9
  3466  0251  0140               	movlb	0	; select bank0
  3467  0252  00C0               	movwf	??_main+1
  3468  0253  301E               	movlw	30
  3469  0254  00BF               	movwf	??_main
  3470  0255  30E4               	movlw	228
  3471  0256                     u1057:	
  3472  0256  0B89               	decfsz	9,f
  3473  0257  2A56               	goto	u1057
  3474  0258  0BBF               	decfsz	??_main,f
  3475  0259  2A56               	goto	u1057
  3476  025A  0BC0               	decfsz	??_main+1,f
  3477  025B  2A56               	goto	u1057
  3478  025C  0000               	nop
  3479  025D  2A50               	goto	l2029
  3480  025E  3180  2837         	ljmp	start
  3481  0260                     __end_of_main:	
  3482                           
  3483                           	psect	text1
  3484  0057                     __ptext1:	
  3485 ;; *************** function _setDots *****************
  3486 ;; Defined at:
  3487 ;;		line 57 in file "main.c"
  3488 ;; Parameters:    Size  Location     Type
  3489 ;;  newData         1    wreg     unsigned char 
  3490 ;; Auto vars:     Size  Location     Type
  3491 ;;  newData         1    2[BANK0 ] unsigned char 
  3492 ;; Return value:  Size  Location     Type
  3493 ;;                  1    wreg      void 
  3494 ;; Registers used:
  3495 ;;		wreg, status,2, status,0
  3496 ;; Tracked objects:
  3497 ;;		On entry : 0/0
  3498 ;;		On exit  : 0/0
  3499 ;;		Unchanged: 0/0
  3500 ;; Data sizes:     COMMON   BANK0   BANK1   BANK2   BANK3   BANK4   BANK5   BANK6   BANK7   BANK8   BANK9  BANK10  BANK1
      +1  BANK12
  3501 ;;      Params:         0       0       0       0       0       0       0       0       0       0       0       0       
      +0       0
  3502 ;;      Locals:         0       1       0       0       0       0       0       0       0       0       0       0       
      +0       0
  3503 ;;      Temps:          0       2       0       0       0       0       0       0       0       0       0       0       
      +0       0
  3504 ;;      Totals:         0       3       0       0       0       0       0       0       0       0       0       0       
      +0       0
  3505 ;;Total ram usage:        3 bytes
  3506 ;; Hardware stack levels used:    1
  3507 ;; Hardware stack levels required when called:    4
  3508 ;; This function calls:
  3509 ;;		Nothing
  3510 ;; This function is called by:
  3511 ;;		_main
  3512 ;; This function uses a non-reentrant model
  3513 ;;
  3514                           
  3515                           
  3516                           ;psect for function _setDots
  3517  0057                     _setDots:	
  3518                           
  3519                           ;incstack = 0
  3520                           ; Regs used in _setDots: [wreg+status,2+status,0]
  3521                           ;setDots@newData stored from wreg
  3522  0057  0140               	movlb	0	; select bank0
  3523  0058  00BE               	movwf	setDots@newData
  3524  0059                     l1951:	
  3525                           
  3526                           ;main.c: 59:     if (newData == previousData) return;
  3527  0059  083E               	movf	setDots@newData,w
  3528  005A  0672               	xorwf	_previousData,w
  3529  005B  1D03               	skipz
  3530  005C  285E               	goto	u881
  3531  005D  285F               	goto	u880
  3532  005E                     u881:	
  3533  005E  2860               	goto	l1955
  3534  005F                     u880:	
  3535  005F  2924               	goto	l482
  3536  0060                     l1955:	
  3537                           
  3538                           ;main.c: 61:     previousState = 0x00;
  3539  0060  01F1               	clrf	_previousState
  3540                           
  3541                           ;main.c: 62:     nextState = 0x00;
  3542  0061  01F0               	clrf	_nextState
  3543  0062                     l1957:	
  3544                           
  3545                           ;main.c: 64:     previousState ^= (previousData & 0b01000000) >> 6;
  3546  0062  0872               	movf	_previousData,w
  3547  0063  00BC               	movwf	??_setDots
  3548  0064  3006               	movlw	6
  3549  0065                     u895:	
  3550  0065  36BC               	lsrf	??_setDots,f
  3551  0066  0B89               	decfsz	9,f
  3552  0067  2865               	goto	u895
  3553  0068  083C               	movf	??_setDots,w
  3554  0069  3901               	andlw	1
  3555  006A  00BD               	movwf	??_setDots+1
  3556  006B  083D               	movf	??_setDots+1,w
  3557  006C  06F1               	xorwf	_previousState,f
  3558  006D                     l1959:	
  3559                           
  3560                           ;main.c: 65:     previousState ^= (previousData & 0b00100000) >> 4;
  3561  006D  0872               	movf	_previousData,w
  3562  006E  00BC               	movwf	??_setDots
  3563  006F  3004               	movlw	4
  3564  0070                     u905:	
  3565  0070  36BC               	lsrf	??_setDots,f
  3566  0071  0B89               	decfsz	9,f
  3567  0072  2870               	goto	u905
  3568  0073  083C               	movf	??_setDots,w
  3569  0074  3902               	andlw	2
  3570  0075  00BD               	movwf	??_setDots+1
  3571  0076  083D               	movf	??_setDots+1,w
  3572  0077  06F1               	xorwf	_previousState,f
  3573  0078                     l1961:	
  3574                           
  3575                           ;main.c: 66:     previousState ^= (previousData & 0b00010000) >> 2;
  3576  0078  0872               	movf	_previousData,w
  3577  0079  00BC               	movwf	??_setDots
  3578  007A  3002               	movlw	2
  3579  007B                     u915:	
  3580  007B  36BC               	lsrf	??_setDots,f
  3581  007C  0B89               	decfsz	9,f
  3582  007D  287B               	goto	u915
  3583  007E  083C               	movf	??_setDots,w
  3584  007F  3904               	andlw	4
  3585  0080  00BD               	movwf	??_setDots+1
  3586  0081  083D               	movf	??_setDots+1,w
  3587  0082  06F1               	xorwf	_previousState,f
  3588  0083                     l1963:	
  3589                           
  3590                           ;main.c: 67:     previousState ^= (previousData & 0b00001000);
  3591  0083  0872               	movf	_previousData,w
  3592  0084  3908               	andlw	8
  3593  0085  00BC               	movwf	??_setDots
  3594  0086  083C               	movf	??_setDots,w
  3595  0087  06F1               	xorwf	_previousState,f
  3596  0088                     l1965:	
  3597                           
  3598                           ;main.c: 68:     previousState ^= (previousData & 0b00000100) << 2;
  3599  0088  0872               	movf	_previousData,w
  3600  0089  3904               	andlw	4
  3601  008A  00BC               	movwf	??_setDots
  3602  008B  3001               	movlw	1
  3603  008C                     u925:	
  3604  008C  35BC               	lslf	??_setDots,f
  3605  008D  3EFF               	addlw	-1
  3606  008E  1D03               	skipz
  3607  008F  288C               	goto	u925
  3608  0090  353C               	lslf	??_setDots,w
  3609  0091  00BD               	movwf	??_setDots+1
  3610  0092  083D               	movf	??_setDots+1,w
  3611  0093  06F1               	xorwf	_previousState,f
  3612  0094                     l1967:	
  3613                           
  3614                           ;main.c: 69:     previousState ^= (previousData & 0b00000010) << 4;
  3615  0094  0872               	movf	_previousData,w
  3616  0095  3902               	andlw	2
  3617  0096  00BC               	movwf	??_setDots
  3618  0097  3003               	movlw	3
  3619  0098                     u935:	
  3620  0098  35BC               	lslf	??_setDots,f
  3621  0099  3EFF               	addlw	-1
  3622  009A  1D03               	skipz
  3623  009B  2898               	goto	u935
  3624  009C  353C               	lslf	??_setDots,w
  3625  009D  00BD               	movwf	??_setDots+1
  3626  009E  083D               	movf	??_setDots+1,w
  3627  009F  06F1               	xorwf	_previousState,f
  3628  00A0                     l1969:	
  3629                           
  3630                           ;main.c: 70:     previousState ^= (previousData & 0b00000001) << 6;
  3631  00A0  0872               	movf	_previousData,w
  3632  00A1  3901               	andlw	1
  3633  00A2  00BC               	movwf	??_setDots
  3634  00A3  3005               	movlw	5
  3635  00A4                     u945:	
  3636  00A4  35BC               	lslf	??_setDots,f
  3637  00A5  3EFF               	addlw	-1
  3638  00A6  1D03               	skipz
  3639  00A7  28A4               	goto	u945
  3640  00A8  353C               	lslf	??_setDots,w
  3641  00A9  00BD               	movwf	??_setDots+1
  3642  00AA  083D               	movf	??_setDots+1,w
  3643  00AB  06F1               	xorwf	_previousState,f
  3644  00AC                     l1971:	
  3645                           
  3646                           ;main.c: 72:     nextState ^= (newData & 0b01000000) >> 6;
  3647  00AC  083E               	movf	setDots@newData,w
  3648  00AD  00BC               	movwf	??_setDots
  3649  00AE  3006               	movlw	6
  3650  00AF                     u955:	
  3651  00AF  36BC               	lsrf	??_setDots,f
  3652  00B0  0B89               	decfsz	9,f
  3653  00B1  28AF               	goto	u955
  3654  00B2  083C               	movf	??_setDots,w
  3655  00B3  3901               	andlw	1
  3656  00B4  00BD               	movwf	??_setDots+1
  3657  00B5  083D               	movf	??_setDots+1,w
  3658  00B6  06F0               	xorwf	_nextState,f
  3659  00B7                     l1973:	
  3660                           
  3661                           ;main.c: 73:     nextState ^= (newData & 0b00100000) >> 4;
  3662  00B7  083E               	movf	setDots@newData,w
  3663  00B8  00BC               	movwf	??_setDots
  3664  00B9  3004               	movlw	4
  3665  00BA                     u965:	
  3666  00BA  36BC               	lsrf	??_setDots,f
  3667  00BB  0B89               	decfsz	9,f
  3668  00BC  28BA               	goto	u965
  3669  00BD  083C               	movf	??_setDots,w
  3670  00BE  3902               	andlw	2
  3671  00BF  00BD               	movwf	??_setDots+1
  3672  00C0  083D               	movf	??_setDots+1,w
  3673  00C1  06F0               	xorwf	_nextState,f
  3674  00C2                     l1975:	
  3675                           
  3676                           ;main.c: 74:     nextState ^= (newData & 0b00010000) >> 2;
  3677  00C2  083E               	movf	setDots@newData,w
  3678  00C3  00BC               	movwf	??_setDots
  3679  00C4  3002               	movlw	2
  3680  00C5                     u975:	
  3681  00C5  36BC               	lsrf	??_setDots,f
  3682  00C6  0B89               	decfsz	9,f
  3683  00C7  28C5               	goto	u975
  3684  00C8  083C               	movf	??_setDots,w
  3685  00C9  3904               	andlw	4
  3686  00CA  00BD               	movwf	??_setDots+1
  3687  00CB  083D               	movf	??_setDots+1,w
  3688  00CC  06F0               	xorwf	_nextState,f
  3689  00CD                     l1977:	
  3690                           
  3691                           ;main.c: 75:     nextState ^= (newData & 0b00001000);
  3692  00CD  083E               	movf	setDots@newData,w
  3693  00CE  3908               	andlw	8
  3694  00CF  00BC               	movwf	??_setDots
  3695  00D0  083C               	movf	??_setDots,w
  3696  00D1  06F0               	xorwf	_nextState,f
  3697  00D2                     l1979:	
  3698                           
  3699                           ;main.c: 76:     nextState ^= (newData & 0b00000100) << 2;
  3700  00D2  083E               	movf	setDots@newData,w
  3701  00D3  3904               	andlw	4
  3702  00D4  00BC               	movwf	??_setDots
  3703  00D5  3001               	movlw	1
  3704  00D6                     u985:	
  3705  00D6  35BC               	lslf	??_setDots,f
  3706  00D7  3EFF               	addlw	-1
  3707  00D8  1D03               	skipz
  3708  00D9  28D6               	goto	u985
  3709  00DA  353C               	lslf	??_setDots,w
  3710  00DB  00BD               	movwf	??_setDots+1
  3711  00DC  083D               	movf	??_setDots+1,w
  3712  00DD  06F0               	xorwf	_nextState,f
  3713  00DE                     l1981:	
  3714                           
  3715                           ;main.c: 77:     nextState ^= (newData & 0b00000010) << 4;
  3716  00DE  083E               	movf	setDots@newData,w
  3717  00DF  3902               	andlw	2
  3718  00E0  00BC               	movwf	??_setDots
  3719  00E1  3003               	movlw	3
  3720  00E2                     u995:	
  3721  00E2  35BC               	lslf	??_setDots,f
  3722  00E3  3EFF               	addlw	-1
  3723  00E4  1D03               	skipz
  3724  00E5  28E2               	goto	u995
  3725  00E6  353C               	lslf	??_setDots,w
  3726  00E7  00BD               	movwf	??_setDots+1
  3727  00E8  083D               	movf	??_setDots+1,w
  3728  00E9  06F0               	xorwf	_nextState,f
  3729  00EA                     l1983:	
  3730                           
  3731                           ;main.c: 78:     nextState ^= (newData & 0b00000001) << 6;
  3732  00EA  083E               	movf	setDots@newData,w
  3733  00EB  3901               	andlw	1
  3734  00EC  00BC               	movwf	??_setDots
  3735  00ED  3005               	movlw	5
  3736  00EE                     u1005:	
  3737  00EE  35BC               	lslf	??_setDots,f
  3738  00EF  3EFF               	addlw	-1
  3739  00F0  1D03               	skipz
  3740  00F1  28EE               	goto	u1005
  3741  00F2  353C               	lslf	??_setDots,w
  3742  00F3  00BD               	movwf	??_setDots+1
  3743  00F4  083D               	movf	??_setDots+1,w
  3744  00F5  06F0               	xorwf	_nextState,f
  3745  00F6                     l1985:	
  3746                           
  3747                           ;main.c: 80:     PORTB = previousState;
  3748  00F6  0871               	movf	_previousState,w
  3749  00F7  008D               	movwf	13	;volatile
  3750                           
  3751                           ;main.c: 81:     PORTA = ~previousState;
  3752  00F8  0971               	comf	_previousState,w
  3753  00F9  008C               	movwf	12	;volatile
  3754  00FA                     l1987:	
  3755                           
  3756                           ;main.c: 82:     _delay((unsigned long)((1)*(32000000/4000.0)));
  3757  00FA  300B               	movlw	11
  3758  00FB  0140               	movlb	0	; select bank0
  3759  00FC  00BC               	movwf	??_setDots
  3760  00FD  3062               	movlw	98
  3761  00FE                     u1067:	
  3762  00FE  0B89               	decfsz	9,f
  3763  00FF  28FE               	goto	u1067
  3764  0100  0BBC               	decfsz	??_setDots,f
  3765  0101  28FE               	goto	u1067
  3766  0102  0000               	nop
  3767                           
  3768                           ;main.c: 83:     PORTB = 0x00;
  3769  0103  0140               	movlb	0	; select bank0
  3770  0104  018D               	clrf	13	;volatile
  3771                           
  3772                           ;main.c: 84:     PORTA = 0x00;
  3773  0105  018C               	clrf	12	;volatile
  3774  0106                     l1989:	
  3775                           
  3776                           ;main.c: 86:     _delay((unsigned long)((5)*(32000000/4000.0)));
  3777  0106  3034               	movlw	52
  3778  0107  0140               	movlb	0	; select bank0
  3779  0108  00BC               	movwf	??_setDots
  3780  0109  30F1               	movlw	241
  3781  010A                     u1077:	
  3782  010A  0B89               	decfsz	9,f
  3783  010B  290A               	goto	u1077
  3784  010C  0BBC               	decfsz	??_setDots,f
  3785  010D  290A               	goto	u1077
  3786  010E  3200               	nop2
  3787  010F                     l1991:	
  3788                           
  3789                           ;main.c: 87:     previousData = newData;
  3790  010F  0140               	movlb	0	; select bank0
  3791  0110  083E               	movf	setDots@newData,w
  3792  0111  00BC               	movwf	??_setDots
  3793  0112  083C               	movf	??_setDots,w
  3794  0113  00F2               	movwf	_previousData
  3795  0114                     l1993:	
  3796                           
  3797                           ;main.c: 89:     PORTB = nextState;
  3798  0114  0870               	movf	_nextState,w
  3799  0115  008D               	movwf	13	;volatile
  3800                           
  3801                           ;main.c: 90:     PORTA = ~nextState;
  3802  0116  0970               	comf	_nextState,w
  3803  0117  008C               	movwf	12	;volatile
  3804  0118                     l1995:	
  3805                           
  3806                           ;main.c: 91:     _delay((unsigned long)((1)*(32000000/4000.0)));
  3807  0118  300B               	movlw	11
  3808  0119  0140               	movlb	0	; select bank0
  3809  011A  00BC               	movwf	??_setDots
  3810  011B  3062               	movlw	98
  3811  011C                     u1087:	
  3812  011C  0B89               	decfsz	9,f
  3813  011D  291C               	goto	u1087
  3814  011E  0BBC               	decfsz	??_setDots,f
  3815  011F  291C               	goto	u1087
  3816  0120  0000               	nop
  3817                           
  3818                           ;main.c: 92:     PORTB = 0x00;
  3819  0121  0140               	movlb	0	; select bank0
  3820  0122  018D               	clrf	13	;volatile
  3821                           
  3822                           ;main.c: 93:     PORTA = 0x00;
  3823  0123  018C               	clrf	12	;volatile
  3824  0124                     l482:	
  3825  0124  0008               	return
  3826  0125                     __end_of_setDots:	
  3827                           
  3828                           	psect	text2
  3829  036D                     __ptext2:	
  3830 ;; *************** function _SYSTEM_Initialize *****************
  3831 ;; Defined at:
  3832 ;;		line 50 in file "mcc_generated_files/mcc.c"
  3833 ;; Parameters:    Size  Location     Type
  3834 ;;		None
  3835 ;; Auto vars:     Size  Location     Type
  3836 ;;		None
  3837 ;; Return value:  Size  Location     Type
  3838 ;;                  1    wreg      void 
  3839 ;; Registers used:
  3840 ;;		wreg, status,2, status,0, pclath, cstack
  3841 ;; Tracked objects:
  3842 ;;		On entry : 0/0
  3843 ;;		On exit  : 0/0
  3844 ;;		Unchanged: 0/0
  3845 ;; Data sizes:     COMMON   BANK0   BANK1   BANK2   BANK3   BANK4   BANK5   BANK6   BANK7   BANK8   BANK9  BANK10  BANK1
      +1  BANK12
  3846 ;;      Params:         0       0       0       0       0       0       0       0       0       0       0       0       
      +0       0
  3847 ;;      Locals:         0       0       0       0       0       0       0       0       0       0       0       0       
      +0       0
  3848 ;;      Temps:          0       0       0       0       0       0       0       0       0       0       0       0       
      +0       0
  3849 ;;      Totals:         0       0       0       0       0       0       0       0       0       0       0       0       
      +0       0
  3850 ;;Total ram usage:        0 bytes
  3851 ;; Hardware stack levels used:    1
  3852 ;; Hardware stack levels required when called:    6
  3853 ;; This function calls:
  3854 ;;		_CLC1_Initialize
  3855 ;;		_EUSART1_Initialize
  3856 ;;		_OSCILLATOR_Initialize
  3857 ;;		_PIN_MANAGER_Initialize
  3858 ;;		_PMD_Initialize
  3859 ;;		_SPI1_Initialize
  3860 ;;		_TMR0_Initialize
  3861 ;; This function is called by:
  3862 ;;		_main
  3863 ;; This function uses a non-reentrant model
  3864 ;;
  3865                           
  3866                           
  3867                           ;psect for function _SYSTEM_Initialize
  3868  036D                     _SYSTEM_Initialize:	
  3869  036D                     l1937:	
  3870                           ;incstack = 0
  3871                           ; Regs used in _SYSTEM_Initialize: [wreg+status,2+status,0+pclath+cstack]
  3872                           
  3873                           
  3874                           ;mcc_generated_files/mcc.c: 52:     PMD_Initialize();
  3875  036D  3184  2400  3183   	fcall	_PMD_Initialize
  3876  0370                     l1939:	
  3877                           
  3878                           ;mcc_generated_files/mcc.c: 53:     SPI1_Initialize();
  3879  0370  3183  2336  3183   	fcall	_SPI1_Initialize
  3880  0373                     l1941:	
  3881                           
  3882                           ;mcc_generated_files/mcc.c: 54:     PIN_MANAGER_Initialize();
  3883  0373  3183  2303  3183   	fcall	_PIN_MANAGER_Initialize
  3884  0376                     l1943:	
  3885                           
  3886                           ;mcc_generated_files/mcc.c: 55:     OSCILLATOR_Initialize();
  3887  0376  3183  23DB  3183   	fcall	_OSCILLATOR_Initialize
  3888  0379                     l1945:	
  3889                           
  3890                           ;mcc_generated_files/mcc.c: 56:     CLC1_Initialize();
  3891  0379  3183  23BD  3183   	fcall	_CLC1_Initialize
  3892  037C                     l1947:	
  3893                           
  3894                           ;mcc_generated_files/mcc.c: 57:     TMR0_Initialize();
  3895  037C  3183  2383  3183   	fcall	_TMR0_Initialize
  3896  037F                     l1949:	
  3897                           
  3898                           ;mcc_generated_files/mcc.c: 58:     EUSART1_Initialize();
  3899  037F  3182  22CF  3183   	fcall	_EUSART1_Initialize
  3900  0382                     l111:	
  3901  0382  0008               	return
  3902  0383                     __end_of_SYSTEM_Initialize:	
  3903                           
  3904                           	psect	text3
  3905  0383                     __ptext3:	
  3906 ;; *************** function _TMR0_Initialize *****************
  3907 ;; Defined at:
  3908 ;;		line 61 in file "mcc_generated_files/tmr0.c"
  3909 ;; Parameters:    Size  Location     Type
  3910 ;;		None
  3911 ;; Auto vars:     Size  Location     Type
  3912 ;;		None
  3913 ;; Return value:  Size  Location     Type
  3914 ;;                  1    wreg      void 
  3915 ;; Registers used:
  3916 ;;		wreg, status,2, status,0, pclath, cstack
  3917 ;; Tracked objects:
  3918 ;;		On entry : 0/0
  3919 ;;		On exit  : 0/0
  3920 ;;		Unchanged: 0/0
  3921 ;; Data sizes:     COMMON   BANK0   BANK1   BANK2   BANK3   BANK4   BANK5   BANK6   BANK7   BANK8   BANK9  BANK10  BANK1
      +1  BANK12
  3922 ;;      Params:         0       0       0       0       0       0       0       0       0       0       0       0       
      +0       0
  3923 ;;      Locals:         0       0       0       0       0       0       0       0       0       0       0       0       
      +0       0
  3924 ;;      Temps:          0       0       0       0       0       0       0       0       0       0       0       0       
      +0       0
  3925 ;;      Totals:         0       0       0       0       0       0       0       0       0       0       0       0       
      +0       0
  3926 ;;Total ram usage:        0 bytes
  3927 ;; Hardware stack levels used:    1
  3928 ;; Hardware stack levels required when called:    5
  3929 ;; This function calls:
  3930 ;;		_TMR0_SetInterruptHandler
  3931 ;; This function is called by:
  3932 ;;		_SYSTEM_Initialize
  3933 ;; This function uses a non-reentrant model
  3934 ;;
  3935                           
  3936                           
  3937                           ;psect for function _TMR0_Initialize
  3938  0383                     _TMR0_Initialize:	
  3939  0383                     l1903:	
  3940                           ;incstack = 0
  3941                           ; Regs used in _TMR0_Initialize: [wreg+status,2+status,0+pclath+cstack]
  3942                           
  3943                           
  3944                           ;mcc_generated_files/tmr0.c: 66:     T0CON1 = 0x49;
  3945  0383  3049               	movlw	73
  3946  0384  014B               	movlb	11	; select bank11
  3947  0385  009F               	movwf	31	;volatile
  3948                           
  3949                           ;mcc_generated_files/tmr0.c: 69:     TMR0H = 0x9F;
  3950  0386  309F               	movlw	159
  3951  0387  009D               	movwf	29	;volatile
  3952  0388                     l1905:	
  3953                           
  3954                           ;mcc_generated_files/tmr0.c: 72:     TMR0L = 0x00;
  3955  0388  019C               	clrf	28	;volatile
  3956  0389                     l1907:	
  3957                           
  3958                           ;mcc_generated_files/tmr0.c: 75:     PIR0bits.TMR0IF = 0;
  3959  0389  014E               	movlb	14	; select bank14
  3960  038A  128C               	bcf	12,5	;volatile
  3961  038B                     l1909:	
  3962                           
  3963                           ;mcc_generated_files/tmr0.c: 78:     PIE0bits.TMR0IE = 1;
  3964  038B  1696               	bsf	22,5	;volatile
  3965  038C                     l1911:	
  3966                           
  3967                           ;mcc_generated_files/tmr0.c: 81:     TMR0_SetInterruptHandler(TMR0_DefaultInterruptHandl
      +                          er);
  3968  038C  3041               	movlw	low _TMR0_DefaultInterruptHandler
  3969  038D  0140               	movlb	0	; select bank0
  3970  038E  00BC               	movwf	TMR0_SetInterruptHandler@InterruptHandler
  3971  038F  3004               	movlw	high _TMR0_DefaultInterruptHandler
  3972  0390  00BD               	movwf	TMR0_SetInterruptHandler@InterruptHandler+1
  3973  0391  3184  240E  3183   	fcall	_TMR0_SetInterruptHandler
  3974  0394                     l1913:	
  3975                           
  3976                           ;mcc_generated_files/tmr0.c: 84:     T0CON0 = 0x80;
  3977  0394  3080               	movlw	128
  3978  0395  014B               	movlb	11	; select bank11
  3979  0396  009E               	movwf	30	;volatile
  3980  0397                     l257:	
  3981  0397  0008               	return
  3982  0398                     __end_of_TMR0_Initialize:	
  3983                           
  3984                           	psect	text4
  3985  040E                     __ptext4:	
  3986 ;; *************** function _TMR0_SetInterruptHandler *****************
  3987 ;; Defined at:
  3988 ;;		line 134 in file "mcc_generated_files/tmr0.c"
  3989 ;; Parameters:    Size  Location     Type
  3990 ;;  InterruptHan    2    0[BANK0 ] PTR FTN()void 
  3991 ;;		 -> tmr0InterruptHandler(1), TMR0_DefaultInterruptHandler(1), 
  3992 ;; Auto vars:     Size  Location     Type
  3993 ;;		None
  3994 ;; Return value:  Size  Location     Type
  3995 ;;                  1    wreg      void 
  3996 ;; Registers used:
  3997 ;;		wreg
  3998 ;; Tracked objects:
  3999 ;;		On entry : 0/0
  4000 ;;		On exit  : 0/0
  4001 ;;		Unchanged: 0/0
  4002 ;; Data sizes:     COMMON   BANK0   BANK1   BANK2   BANK3   BANK4   BANK5   BANK6   BANK7   BANK8   BANK9  BANK10  BANK1
      +1  BANK12
  4003 ;;      Params:         0       2       0       0       0       0       0       0       0       0       0       0       
      +0       0
  4004 ;;      Locals:         0       0       0       0       0       0       0       0       0       0       0       0       
      +0       0
  4005 ;;      Temps:          0       0       0       0       0       0       0       0       0       0       0       0       
      +0       0
  4006 ;;      Totals:         0       2       0       0       0       0       0       0       0       0       0       0       
      +0       0
  4007 ;;Total ram usage:        2 bytes
  4008 ;; Hardware stack levels used:    1
  4009 ;; Hardware stack levels required when called:    4
  4010 ;; This function calls:
  4011 ;;		Nothing
  4012 ;; This function is called by:
  4013 ;;		_TMR0_Initialize
  4014 ;;		_main
  4015 ;; This function uses a non-reentrant model
  4016 ;;
  4017                           
  4018                           
  4019                           ;psect for function _TMR0_SetInterruptHandler
  4020  040E                     _TMR0_SetInterruptHandler:	
  4021  040E                     l1793:	
  4022                           ;incstack = 0
  4023                           ; Regs used in _TMR0_SetInterruptHandler: [wreg]
  4024                           
  4025                           
  4026                           ;mcc_generated_files/tmr0.c: 135:     TMR0_InterruptHandler = InterruptHandler;
  4027  040E  0140               	movlb	0	; select bank0
  4028  040F  083D               	movf	TMR0_SetInterruptHandler@InterruptHandler+1,w
  4029  0410  00B7               	movwf	_TMR0_InterruptHandler+1
  4030  0411  083C               	movf	TMR0_SetInterruptHandler@InterruptHandler,w
  4031  0412  00B6               	movwf	_TMR0_InterruptHandler
  4032  0413                     l279:	
  4033  0413  0008               	return
  4034  0414                     __end_of_TMR0_SetInterruptHandler:	
  4035                           
  4036                           	psect	text5
  4037  0336                     __ptext5:	
  4038 ;; *************** function _SPI1_Initialize *****************
  4039 ;; Defined at:
  4040 ;;		line 62 in file "mcc_generated_files/spi1.c"
  4041 ;; Parameters:    Size  Location     Type
  4042 ;;		None
  4043 ;; Auto vars:     Size  Location     Type
  4044 ;;		None
  4045 ;; Return value:  Size  Location     Type
  4046 ;;                  1    wreg      void 
  4047 ;; Registers used:
  4048 ;;		wreg, status,2, status,0, pclath, cstack
  4049 ;; Tracked objects:
  4050 ;;		On entry : 0/0
  4051 ;;		On exit  : 0/0
  4052 ;;		Unchanged: 0/0
  4053 ;; Data sizes:     COMMON   BANK0   BANK1   BANK2   BANK3   BANK4   BANK5   BANK6   BANK7   BANK8   BANK9  BANK10  BANK1
      +1  BANK12
  4054 ;;      Params:         0       0       0       0       0       0       0       0       0       0       0       0       
      +0       0
  4055 ;;      Locals:         0       0       0       0       0       0       0       0       0       0       0       0       
      +0       0
  4056 ;;      Temps:          0       0       0       0       0       0       0       0       0       0       0       0       
      +0       0
  4057 ;;      Totals:         0       0       0       0       0       0       0       0       0       0       0       0       
      +0       0
  4058 ;;Total ram usage:        0 bytes
  4059 ;; Hardware stack levels used:    1
  4060 ;; Hardware stack levels required when called:    5
  4061 ;; This function calls:
  4062 ;;		_SPI1_SetInterruptHandler
  4063 ;; This function is called by:
  4064 ;;		_SYSTEM_Initialize
  4065 ;; This function uses a non-reentrant model
  4066 ;;
  4067                           
  4068                           
  4069                           ;psect for function _SPI1_Initialize
  4070  0336                     _SPI1_Initialize:	
  4071  0336                     l1857:	
  4072                           ;incstack = 0
  4073                           ; Regs used in _SPI1_Initialize: [wreg+status,2+status,0+pclath+cstack]
  4074                           
  4075                           
  4076                           ;mcc_generated_files/spi1.c: 65:     SSP1CLKPPS = 17;
  4077  0336  3011               	movlw	17
  4078  0337  017D               	movlb	61	; select bank61
  4079  0338  00C5               	movwf	69	;volatile
  4080                           
  4081                           ;mcc_generated_files/spi1.c: 66:     SSP1DATPPS = 16;
  4082  0339  3010               	movlw	16
  4083  033A  00C6               	movwf	70	;volatile
  4084  033B                     l1859:	
  4085                           
  4086                           ;mcc_generated_files/spi1.c: 67:     RC1PPS = 0;
  4087  033B  017E               	movlb	62	; select bank62
  4088  033C  01A1               	clrf	33	;volatile
  4089  033D                     l1861:	
  4090                           
  4091                           ;mcc_generated_files/spi1.c: 68:     RC4PPS = 22;
  4092  033D  3016               	movlw	22
  4093  033E  00A4               	movwf	36	;volatile
  4094  033F                     l1863:	
  4095                           
  4096                           ;mcc_generated_files/spi1.c: 70:     SSP1STAT = 0x40;
  4097  033F  3040               	movlw	64
  4098  0340  0143               	movlb	3	; select bank3
  4099  0341  008F               	movwf	15	;volatile
  4100  0342                     l1865:	
  4101                           
  4102                           ;mcc_generated_files/spi1.c: 71:     SSP1CON1 = 0x05;
  4103  0342  3005               	movlw	5
  4104  0343  0090               	movwf	16	;volatile
  4105                           
  4106                           ;mcc_generated_files/spi1.c: 72:     SSP1ADD = 0x00;
  4107  0344  018D               	clrf	13	;volatile
  4108  0345                     l1867:	
  4109                           
  4110                           ;mcc_generated_files/spi1.c: 73:     PIE3bits.SSP1IE = 1;
  4111  0345  014E               	movlb	14	; select bank14
  4112  0346  1419               	bsf	25,0	;volatile
  4113  0347                     l1869:	
  4114                           
  4115                           ;mcc_generated_files/spi1.c: 74:     SPI1_SetInterruptHandler(SPI1_Isr);
  4116  0347  3098               	movlw	low _SPI1_Isr
  4117  0348  0140               	movlb	0	; select bank0
  4118  0349  00BC               	movwf	SPI1_SetInterruptHandler@handler
  4119  034A  3003               	movlw	high _SPI1_Isr
  4120  034B  00BD               	movwf	SPI1_SetInterruptHandler@handler+1
  4121  034C  3184  2414  3183   	fcall	_SPI1_SetInterruptHandler
  4122  034F                     l1871:	
  4123                           
  4124                           ;mcc_generated_files/spi1.c: 75:     TRISCbits.TRISC1 = 1;
  4125  034F  0140               	movlb	0	; select bank0
  4126  0350  1494               	bsf	20,1	;volatile
  4127  0351                     l1873:	
  4128                           
  4129                           ;mcc_generated_files/spi1.c: 76:     SSP1CON1bits.SSPEN = 0;
  4130  0351  0143               	movlb	3	; select bank3
  4131  0352  1290               	bcf	16,5	;volatile
  4132  0353                     l157:	
  4133  0353  0008               	return
  4134  0354                     __end_of_SPI1_Initialize:	
  4135                           
  4136                           	psect	text6
  4137  0414                     __ptext6:	
  4138 ;; *************** function _SPI1_SetInterruptHandler *****************
  4139 ;; Defined at:
  4140 ;;		line 158 in file "mcc_generated_files/spi1.c"
  4141 ;; Parameters:    Size  Location     Type
  4142 ;;  handler         2    0[BANK0 ] PTR FTN()void 
  4143 ;;		 -> spi1InterruptHandler(1), SPI1_Isr(1), 
  4144 ;; Auto vars:     Size  Location     Type
  4145 ;;		None
  4146 ;; Return value:  Size  Location     Type
  4147 ;;                  1    wreg      void 
  4148 ;; Registers used:
  4149 ;;		wreg
  4150 ;; Tracked objects:
  4151 ;;		On entry : 0/0
  4152 ;;		On exit  : 0/0
  4153 ;;		Unchanged: 0/0
  4154 ;; Data sizes:     COMMON   BANK0   BANK1   BANK2   BANK3   BANK4   BANK5   BANK6   BANK7   BANK8   BANK9  BANK10  BANK1
      +1  BANK12
  4155 ;;      Params:         0       2       0       0       0       0       0       0       0       0       0       0       
      +0       0
  4156 ;;      Locals:         0       0       0       0       0       0       0       0       0       0       0       0       
      +0       0
  4157 ;;      Temps:          0       0       0       0       0       0       0       0       0       0       0       0       
      +0       0
  4158 ;;      Totals:         0       2       0       0       0       0       0       0       0       0       0       0       
      +0       0
  4159 ;;Total ram usage:        2 bytes
  4160 ;; Hardware stack levels used:    1
  4161 ;; Hardware stack levels required when called:    4
  4162 ;; This function calls:
  4163 ;;		Nothing
  4164 ;; This function is called by:
  4165 ;;		_SPI1_Initialize
  4166 ;;		_main
  4167 ;; This function uses a non-reentrant model
  4168 ;;
  4169                           
  4170                           
  4171                           ;psect for function _SPI1_SetInterruptHandler
  4172  0414                     _SPI1_SetInterruptHandler:	
  4173  0414                     l1791:	
  4174                           ;incstack = 0
  4175                           ; Regs used in _SPI1_SetInterruptHandler: [wreg]
  4176                           
  4177                           
  4178                           ;mcc_generated_files/spi1.c: 158: void SPI1_SetInterruptHandler(spi1InterruptHandler_t h
      +                          andler);mcc_generated_files/spi1.c: 159: {;mcc_generated_files/spi1.c: 160:     MSSP1_In
      +                          terruptHandler = handler;
  4179  0414  0140               	movlb	0	; select bank0
  4180  0415  083D               	movf	SPI1_SetInterruptHandler@handler+1,w
  4181  0416  00C5               	movwf	_MSSP1_InterruptHandler+1
  4182  0417  083C               	movf	SPI1_SetInterruptHandler@handler,w
  4183  0418  00C4               	movwf	_MSSP1_InterruptHandler
  4184  0419                     l205:	
  4185  0419  0008               	return
  4186  041A                     __end_of_SPI1_SetInterruptHandler:	
  4187                           
  4188                           	psect	text7
  4189  0400                     __ptext7:	
  4190 ;; *************** function _PMD_Initialize *****************
  4191 ;; Defined at:
  4192 ;;		line 81 in file "mcc_generated_files/mcc.c"
  4193 ;; Parameters:    Size  Location     Type
  4194 ;;		None
  4195 ;; Auto vars:     Size  Location     Type
  4196 ;;		None
  4197 ;; Return value:  Size  Location     Type
  4198 ;;                  1    wreg      void 
  4199 ;; Registers used:
  4200 ;;		status,2
  4201 ;; Tracked objects:
  4202 ;;		On entry : 0/0
  4203 ;;		On exit  : 0/0
  4204 ;;		Unchanged: 0/0
  4205 ;; Data sizes:     COMMON   BANK0   BANK1   BANK2   BANK3   BANK4   BANK5   BANK6   BANK7   BANK8   BANK9  BANK10  BANK1
      +1  BANK12
  4206 ;;      Params:         0       0       0       0       0       0       0       0       0       0       0       0       
      +0       0
  4207 ;;      Locals:         0       0       0       0       0       0       0       0       0       0       0       0       
      +0       0
  4208 ;;      Temps:          0       0       0       0       0       0       0       0       0       0       0       0       
      +0       0
  4209 ;;      Totals:         0       0       0       0       0       0       0       0       0       0       0       0       
      +0       0
  4210 ;;Total ram usage:        0 bytes
  4211 ;; Hardware stack levels used:    1
  4212 ;; Hardware stack levels required when called:    4
  4213 ;; This function calls:
  4214 ;;		Nothing
  4215 ;; This function is called by:
  4216 ;;		_SYSTEM_Initialize
  4217 ;; This function uses a non-reentrant model
  4218 ;;
  4219                           
  4220                           
  4221                           ;psect for function _PMD_Initialize
  4222  0400                     _PMD_Initialize:	
  4223  0400                     l1855:	
  4224                           ;incstack = 0
  4225                           ; Regs used in _PMD_Initialize: [status,2]
  4226                           
  4227                           
  4228                           ;mcc_generated_files/mcc.c: 84:     PMD0 = 0x00;
  4229  0400  014F               	movlb	15	; select bank15
  4230  0401  0196               	clrf	22	;volatile
  4231                           
  4232                           ;mcc_generated_files/mcc.c: 86:     PMD1 = 0x00;
  4233  0402  0197               	clrf	23	;volatile
  4234                           
  4235                           ;mcc_generated_files/mcc.c: 88:     PMD2 = 0x00;
  4236  0403  0198               	clrf	24	;volatile
  4237                           
  4238                           ;mcc_generated_files/mcc.c: 90:     PMD3 = 0x00;
  4239  0404  0199               	clrf	25	;volatile
  4240                           
  4241                           ;mcc_generated_files/mcc.c: 92:     PMD4 = 0x00;
  4242  0405  019A               	clrf	26	;volatile
  4243                           
  4244                           ;mcc_generated_files/mcc.c: 94:     PMD5 = 0x00;
  4245  0406  019B               	clrf	27	;volatile
  4246  0407                     l120:	
  4247  0407  0008               	return
  4248  0408                     __end_of_PMD_Initialize:	
  4249                           
  4250                           	psect	text8
  4251  0303                     __ptext8:	
  4252 ;; *************** function _PIN_MANAGER_Initialize *****************
  4253 ;; Defined at:
  4254 ;;		line 55 in file "mcc_generated_files/pin_manager.c"
  4255 ;; Parameters:    Size  Location     Type
  4256 ;;		None
  4257 ;; Auto vars:     Size  Location     Type
  4258 ;;		None
  4259 ;; Return value:  Size  Location     Type
  4260 ;;                  1    wreg      void 
  4261 ;; Registers used:
  4262 ;;		wreg, status,2
  4263 ;; Tracked objects:
  4264 ;;		On entry : 0/0
  4265 ;;		On exit  : 0/0
  4266 ;;		Unchanged: 0/0
  4267 ;; Data sizes:     COMMON   BANK0   BANK1   BANK2   BANK3   BANK4   BANK5   BANK6   BANK7   BANK8   BANK9  BANK10  BANK1
      +1  BANK12
  4268 ;;      Params:         0       0       0       0       0       0       0       0       0       0       0       0       
      +0       0
  4269 ;;      Locals:         0       0       0       0       0       0       0       0       0       0       0       0       
      +0       0
  4270 ;;      Temps:          0       0       0       0       0       0       0       0       0       0       0       0       
      +0       0
  4271 ;;      Totals:         0       0       0       0       0       0       0       0       0       0       0       0       
      +0       0
  4272 ;;Total ram usage:        0 bytes
  4273 ;; Hardware stack levels used:    1
  4274 ;; Hardware stack levels required when called:    4
  4275 ;; This function calls:
  4276 ;;		Nothing
  4277 ;; This function is called by:
  4278 ;;		_SYSTEM_Initialize
  4279 ;; This function uses a non-reentrant model
  4280 ;;
  4281                           
  4282                           
  4283                           ;psect for function _PIN_MANAGER_Initialize
  4284  0303                     _PIN_MANAGER_Initialize:	
  4285  0303                     l1803:	
  4286                           ;incstack = 0
  4287                           ; Regs used in _PIN_MANAGER_Initialize: [wreg+status,2]
  4288                           
  4289                           
  4290                           ;mcc_generated_files/pin_manager.c: 60:     LATA = 0x00;
  4291  0303  0140               	movlb	0	; select bank0
  4292  0304  0198               	clrf	24	;volatile
  4293                           
  4294                           ;mcc_generated_files/pin_manager.c: 61:     LATB = 0x00;
  4295  0305  0199               	clrf	25	;volatile
  4296                           
  4297                           ;mcc_generated_files/pin_manager.c: 62:     LATC = 0x00;
  4298  0306  019A               	clrf	26	;volatile
  4299                           
  4300                           ;mcc_generated_files/pin_manager.c: 67:     TRISA = 0x00;
  4301  0307  0192               	clrf	18	;volatile
  4302                           
  4303                           ;mcc_generated_files/pin_manager.c: 68:     TRISB = 0x00;
  4304  0308  0193               	clrf	19	;volatile
  4305  0309                     l1805:	
  4306                           
  4307                           ;mcc_generated_files/pin_manager.c: 69:     TRISC = 0x8F;
  4308  0309  308F               	movlw	143
  4309  030A  0094               	movwf	20	;volatile
  4310  030B                     l1807:	
  4311                           
  4312                           ;mcc_generated_files/pin_manager.c: 74:     ANSELC = 0x00;
  4313  030B  017E               	movlb	62	; select bank62
  4314  030C  01CE               	clrf	78	;volatile
  4315  030D                     l1809:	
  4316                           
  4317                           ;mcc_generated_files/pin_manager.c: 75:     ANSELB = 0x00;
  4318  030D  01C3               	clrf	67	;volatile
  4319  030E                     l1811:	
  4320                           
  4321                           ;mcc_generated_files/pin_manager.c: 76:     ANSELA = 0x00;
  4322  030E  01B8               	clrf	56	;volatile
  4323  030F                     l1813:	
  4324                           
  4325                           ;mcc_generated_files/pin_manager.c: 81:     WPUE = 0x00;
  4326  030F  01E5               	clrf	101	;volatile
  4327  0310                     l1815:	
  4328                           
  4329                           ;mcc_generated_files/pin_manager.c: 82:     WPUB = 0x00;
  4330  0310  01C4               	clrf	68	;volatile
  4331  0311                     l1817:	
  4332                           
  4333                           ;mcc_generated_files/pin_manager.c: 83:     WPUA = 0x00;
  4334  0311  01B9               	clrf	57	;volatile
  4335  0312                     l1819:	
  4336                           
  4337                           ;mcc_generated_files/pin_manager.c: 84:     WPUC = 0x00;
  4338  0312  01CF               	clrf	79	;volatile
  4339  0313                     l1821:	
  4340                           
  4341                           ;mcc_generated_files/pin_manager.c: 89:     ODCONA = 0x00;
  4342  0313  01BA               	clrf	58	;volatile
  4343  0314                     l1823:	
  4344                           
  4345                           ;mcc_generated_files/pin_manager.c: 90:     ODCONB = 0x00;
  4346  0314  01C5               	clrf	69	;volatile
  4347  0315                     l1825:	
  4348                           
  4349                           ;mcc_generated_files/pin_manager.c: 91:     ODCONC = 0x00;
  4350  0315  01D0               	clrf	80	;volatile
  4351  0316                     l1827:	
  4352                           
  4353                           ;mcc_generated_files/pin_manager.c: 96:     SLRCONA = 0xFF;
  4354  0316  30FF               	movlw	255
  4355  0317  00BB               	movwf	59	;volatile
  4356  0318                     l1829:	
  4357                           
  4358                           ;mcc_generated_files/pin_manager.c: 97:     SLRCONB = 0xFF;
  4359  0318  30FF               	movlw	255
  4360  0319  00C6               	movwf	70	;volatile
  4361  031A                     l1831:	
  4362                           
  4363                           ;mcc_generated_files/pin_manager.c: 98:     SLRCONC = 0xFF;
  4364  031A  30FF               	movlw	255
  4365  031B  00D1               	movwf	81	;volatile
  4366  031C                     l1833:	
  4367                           
  4368                           ;mcc_generated_files/pin_manager.c: 103:     INLVLA = 0xFF;
  4369  031C  30FF               	movlw	255
  4370  031D  00BC               	movwf	60	;volatile
  4371  031E                     l1835:	
  4372                           
  4373                           ;mcc_generated_files/pin_manager.c: 104:     INLVLB = 0xFF;
  4374  031E  30FF               	movlw	255
  4375  031F  00C7               	movwf	71	;volatile
  4376  0320                     l1837:	
  4377                           
  4378                           ;mcc_generated_files/pin_manager.c: 105:     INLVLC = 0xFF;
  4379  0320  30FF               	movlw	255
  4380  0321  00D2               	movwf	82	;volatile
  4381  0322                     l1839:	
  4382                           
  4383                           ;mcc_generated_files/pin_manager.c: 106:     INLVLE = 0x08;
  4384  0322  3008               	movlw	8
  4385  0323  00E8               	movwf	104	;volatile
  4386  0324                     l1841:	
  4387                           
  4388                           ;mcc_generated_files/pin_manager.c: 118:     SSP1CLKPPS = 0x11;
  4389  0324  3011               	movlw	17
  4390  0325  017D               	movlb	61	; select bank61
  4391  0326  00C5               	movwf	69	;volatile
  4392  0327                     l1843:	
  4393                           
  4394                           ;mcc_generated_files/pin_manager.c: 119:     CLCIN0PPS = 0x11;
  4395  0327  3011               	movlw	17
  4396  0328  00BB               	movwf	59	;volatile
  4397  0329                     l1845:	
  4398                           
  4399                           ;mcc_generated_files/pin_manager.c: 120:     RC4PPS = 0x16;
  4400  0329  3016               	movlw	22
  4401  032A  017E               	movlb	62	; select bank62
  4402  032B  00A4               	movwf	36	;volatile
  4403  032C                     l1847:	
  4404                           
  4405                           ;mcc_generated_files/pin_manager.c: 121:     RC5PPS = 0x01;
  4406  032C  3001               	movlw	1
  4407  032D  00A5               	movwf	37	;volatile
  4408  032E                     l1849:	
  4409                           
  4410                           ;mcc_generated_files/pin_manager.c: 122:     RC6PPS = 0x0F;
  4411  032E  300F               	movlw	15
  4412  032F  00A6               	movwf	38	;volatile
  4413  0330                     l1851:	
  4414                           
  4415                           ;mcc_generated_files/pin_manager.c: 123:     SSP1DATPPS = 0x10;
  4416  0330  3010               	movlw	16
  4417  0331  017D               	movlb	61	; select bank61
  4418  0332  00C6               	movwf	70	;volatile
  4419  0333                     l1853:	
  4420                           
  4421                           ;mcc_generated_files/pin_manager.c: 124:     RX1DTPPS = 0x12;
  4422  0333  3012               	movlw	18
  4423  0334  00CB               	movwf	75	;volatile
  4424  0335                     l63:	
  4425  0335  0008               	return
  4426  0336                     __end_of_PIN_MANAGER_Initialize:	
  4427                           
  4428                           	psect	text9
  4429  03DB                     __ptext9:	
  4430 ;; *************** function _OSCILLATOR_Initialize *****************
  4431 ;; Defined at:
  4432 ;;		line 61 in file "mcc_generated_files/mcc.c"
  4433 ;; Parameters:    Size  Location     Type
  4434 ;;		None
  4435 ;; Auto vars:     Size  Location     Type
  4436 ;;		None
  4437 ;; Return value:  Size  Location     Type
  4438 ;;                  1    wreg      void 
  4439 ;; Registers used:
  4440 ;;		wreg, status,2
  4441 ;; Tracked objects:
  4442 ;;		On entry : 0/0
  4443 ;;		On exit  : 0/0
  4444 ;;		Unchanged: 0/0
  4445 ;; Data sizes:     COMMON   BANK0   BANK1   BANK2   BANK3   BANK4   BANK5   BANK6   BANK7   BANK8   BANK9  BANK10  BANK1
      +1  BANK12
  4446 ;;      Params:         0       0       0       0       0       0       0       0       0       0       0       0       
      +0       0
  4447 ;;      Locals:         0       0       0       0       0       0       0       0       0       0       0       0       
      +0       0
  4448 ;;      Temps:          0       0       0       0       0       0       0       0       0       0       0       0       
      +0       0
  4449 ;;      Totals:         0       0       0       0       0       0       0       0       0       0       0       0       
      +0       0
  4450 ;;Total ram usage:        0 bytes
  4451 ;; Hardware stack levels used:    1
  4452 ;; Hardware stack levels required when called:    4
  4453 ;; This function calls:
  4454 ;;		Nothing
  4455 ;; This function is called by:
  4456 ;;		_SYSTEM_Initialize
  4457 ;; This function uses a non-reentrant model
  4458 ;;
  4459                           
  4460                           
  4461                           ;psect for function _OSCILLATOR_Initialize
  4462  03DB                     _OSCILLATOR_Initialize:	
  4463  03DB                     l1875:	
  4464                           ;incstack = 0
  4465                           ; Regs used in _OSCILLATOR_Initialize: [wreg+status,2]
  4466                           
  4467                           
  4468                           ;mcc_generated_files/mcc.c: 64:     OSCCON1 = 0x10;
  4469  03DB  3010               	movlw	16
  4470  03DC  0151               	movlb	17	; select bank17
  4471  03DD  008D               	movwf	13	;volatile
  4472  03DE                     l1877:	
  4473                           
  4474                           ;mcc_generated_files/mcc.c: 66:     OSCCON3 = 0x00;
  4475  03DE  018F               	clrf	15	;volatile
  4476  03DF                     l1879:	
  4477                           
  4478                           ;mcc_generated_files/mcc.c: 68:     OSCEN = 0x00;
  4479  03DF  0191               	clrf	17	;volatile
  4480                           
  4481                           ;mcc_generated_files/mcc.c: 70:     OSCFRQ = 0x05;
  4482  03E0  3005               	movlw	5
  4483  03E1  0093               	movwf	19	;volatile
  4484  03E2                     l1881:	
  4485                           
  4486                           ;mcc_generated_files/mcc.c: 72:     OSCSTAT = 0x00;
  4487  03E2  0190               	clrf	16	;volatile
  4488  03E3                     l1883:	
  4489                           
  4490                           ;mcc_generated_files/mcc.c: 74:     OSCTUNE = 0x00;
  4491  03E3  0192               	clrf	18	;volatile
  4492  03E4                     l114:	
  4493                           ;mcc_generated_files/mcc.c: 77:     {;mcc_generated_files/mcc.c: 78:     }
  4494                           
  4495                           
  4496                           ;mcc_generated_files/mcc.c: 76:     while(PLLR == 0)
  4497  03E4  1C10               	btfss	16,0	;volatile
  4498  03E5  2BE7               	goto	u871
  4499  03E6  2BE8               	goto	u870
  4500  03E7                     u871:	
  4501  03E7  2BE4               	goto	l114
  4502  03E8                     u870:	
  4503  03E8                     l117:	
  4504  03E8  0008               	return
  4505  03E9                     __end_of_OSCILLATOR_Initialize:	
  4506                           
  4507                           	psect	text10
  4508  02CF                     __ptext10:	
  4509 ;; *************** function _EUSART1_Initialize *****************
  4510 ;; Defined at:
  4511 ;;		line 83 in file "mcc_generated_files/eusart1.c"
  4512 ;; Parameters:    Size  Location     Type
  4513 ;;		None
  4514 ;; Auto vars:     Size  Location     Type
  4515 ;;		None
  4516 ;; Return value:  Size  Location     Type
  4517 ;;                  1    wreg      void 
  4518 ;; Registers used:
  4519 ;;		wreg, status,2, status,0, pclath, cstack
  4520 ;; Tracked objects:
  4521 ;;		On entry : 0/0
  4522 ;;		On exit  : 0/0
  4523 ;;		Unchanged: 0/0
  4524 ;; Data sizes:     COMMON   BANK0   BANK1   BANK2   BANK3   BANK4   BANK5   BANK6   BANK7   BANK8   BANK9  BANK10  BANK1
      +1  BANK12
  4525 ;;      Params:         0       0       0       0       0       0       0       0       0       0       0       0       
      +0       0
  4526 ;;      Locals:         0       0       0       0       0       0       0       0       0       0       0       0       
      +0       0
  4527 ;;      Temps:          0       0       0       0       0       0       0       0       0       0       0       0       
      +0       0
  4528 ;;      Totals:         0       0       0       0       0       0       0       0       0       0       0       0       
      +0       0
  4529 ;;Total ram usage:        0 bytes
  4530 ;; Hardware stack levels used:    1
  4531 ;; Hardware stack levels required when called:    5
  4532 ;; This function calls:
  4533 ;;		_EUSART1_SetErrorHandler
  4534 ;;		_EUSART1_SetFramingErrorHandler
  4535 ;;		_EUSART1_SetOverrunErrorHandler
  4536 ;;		_EUSART1_SetRxInterruptHandler
  4537 ;; This function is called by:
  4538 ;;		_SYSTEM_Initialize
  4539 ;; This function uses a non-reentrant model
  4540 ;;
  4541                           
  4542                           
  4543                           ;psect for function _EUSART1_Initialize
  4544  02CF                     _EUSART1_Initialize:	
  4545  02CF                     l1915:	
  4546                           ;incstack = 0
  4547                           ; Regs used in _EUSART1_Initialize: [wreg+status,2+status,0+pclath+cstack]
  4548                           
  4549                           
  4550                           ;mcc_generated_files/eusart1.c: 86:     PIE3bits.RC1IE = 0;
  4551  02CF  014E               	movlb	14	; select bank14
  4552  02D0  1299               	bcf	25,5	;volatile
  4553  02D1                     l1917:	
  4554                           
  4555                           ;mcc_generated_files/eusart1.c: 87:     EUSART1_SetRxInterruptHandler(EUSART1_Receive_IS
      +                          R);
  4556  02D1  3060               	movlw	low _EUSART1_Receive_ISR
  4557  02D2  0140               	movlb	0	; select bank0
  4558  02D3  00BC               	movwf	EUSART1_SetRxInterruptHandler@interruptHandler
  4559  02D4  3002               	movlw	high _EUSART1_Receive_ISR
  4560  02D5  00BD               	movwf	EUSART1_SetRxInterruptHandler@interruptHandler+1
  4561  02D6  3184  241A  3182   	fcall	_EUSART1_SetRxInterruptHandler
  4562  02D9                     l1919:	
  4563                           
  4564                           ;mcc_generated_files/eusart1.c: 91:     BAUD1CON = 0x08;
  4565  02D9  3008               	movlw	8
  4566  02DA  0142               	movlb	2	; select bank2
  4567  02DB  009F               	movwf	31	;volatile
  4568  02DC                     l1921:	
  4569                           
  4570                           ;mcc_generated_files/eusart1.c: 94:     RC1STA = 0x90;
  4571  02DC  3090               	movlw	144
  4572  02DD  009D               	movwf	29	;volatile
  4573  02DE                     l1923:	
  4574                           
  4575                           ;mcc_generated_files/eusart1.c: 97:     TX1STA = 0x24;
  4576  02DE  3024               	movlw	36
  4577  02DF  009E               	movwf	30	;volatile
  4578  02E0                     l1925:	
  4579                           
  4580                           ;mcc_generated_files/eusart1.c: 100:     SP1BRGL = 0x44;
  4581  02E0  3044               	movlw	68
  4582  02E1  009B               	movwf	27	;volatile
  4583  02E2                     l1927:	
  4584                           
  4585                           ;mcc_generated_files/eusart1.c: 103:     SP1BRGH = 0x00;
  4586  02E2  019C               	clrf	28	;volatile
  4587  02E3                     l1929:	
  4588                           
  4589                           ;mcc_generated_files/eusart1.c: 106:     EUSART1_SetFramingErrorHandler(EUSART1_DefaultF
      +                          ramingErrorHandler);
  4590  02E3  3042               	movlw	low _EUSART1_DefaultFramingErrorHandler
  4591  02E4  0140               	movlb	0	; select bank0
  4592  02E5  00BC               	movwf	EUSART1_SetFramingErrorHandler@interruptHandler
  4593  02E6  3004               	movlw	high _EUSART1_DefaultFramingErrorHandler
  4594  02E7  00BD               	movwf	EUSART1_SetFramingErrorHandler@interruptHandler+1
  4595  02E8  3184  2426  3182   	fcall	_EUSART1_SetFramingErrorHandler
  4596  02EB                     l1931:	
  4597                           
  4598                           ;mcc_generated_files/eusart1.c: 107:     EUSART1_SetOverrunErrorHandler(EUSART1_DefaultO
      +                          verrunErrorHandler);
  4599  02EB  3036               	movlw	low _EUSART1_DefaultOverrunErrorHandler
  4600  02EC  0140               	movlb	0	; select bank0
  4601  02ED  00BC               	movwf	EUSART1_SetOverrunErrorHandler@interruptHandler
  4602  02EE  3004               	movlw	high _EUSART1_DefaultOverrunErrorHandler
  4603  02EF  00BD               	movwf	EUSART1_SetOverrunErrorHandler@interruptHandler+1
  4604  02F0  3184  2420  3182   	fcall	_EUSART1_SetOverrunErrorHandler
  4605  02F3                     l1933:	
  4606                           
  4607                           ;mcc_generated_files/eusart1.c: 108:     EUSART1_SetErrorHandler(EUSART1_DefaultErrorHan
      +                          dler);
  4608  02F3  303A               	movlw	low _EUSART1_DefaultErrorHandler
  4609  02F4  0140               	movlb	0	; select bank0
  4610  02F5  00BC               	movwf	EUSART1_SetErrorHandler@interruptHandler
  4611  02F6  3004               	movlw	high _EUSART1_DefaultErrorHandler
  4612  02F7  00BD               	movwf	EUSART1_SetErrorHandler@interruptHandler+1
  4613  02F8  3184  242C  3182   	fcall	_EUSART1_SetErrorHandler
  4614                           
  4615                           ;mcc_generated_files/eusart1.c: 110:     eusart1RxLastError.status = 0;
  4616  02FB  0140               	movlb	0	; select bank0
  4617  02FC  01BB               	clrf	_eusart1RxLastError	;volatile
  4618                           
  4619                           ;mcc_generated_files/eusart1.c: 113:     eusart1RxHead = 0;
  4620  02FD  01F5               	clrf	_eusart1RxHead	;volatile
  4621                           
  4622                           ;mcc_generated_files/eusart1.c: 114:     eusart1RxTail = 0;
  4623  02FE  01F4               	clrf	_eusart1RxTail	;volatile
  4624                           
  4625                           ;mcc_generated_files/eusart1.c: 115:     eusart1RxCount = 0;
  4626  02FF  01F3               	clrf	_eusart1RxCount	;volatile
  4627  0300                     l1935:	
  4628                           
  4629                           ;mcc_generated_files/eusart1.c: 118:     PIE3bits.RC1IE = 1;
  4630  0300  014E               	movlb	14	; select bank14
  4631  0301  1699               	bsf	25,5	;volatile
  4632  0302                     l345:	
  4633  0302  0008               	return
  4634  0303                     __end_of_EUSART1_Initialize:	
  4635                           
  4636                           	psect	text11
  4637  041A                     __ptext11:	
  4638 ;; *************** function _EUSART1_SetRxInterruptHandler *****************
  4639 ;; Defined at:
  4640 ;;		line 234 in file "mcc_generated_files/eusart1.c"
  4641 ;; Parameters:    Size  Location     Type
  4642 ;;  interruptHan    2    0[BANK0 ] PTR FTN()void 
  4643 ;;		 -> eusart1RxDataHandler(1), EUSART1_Receive_ISR(1), 
  4644 ;; Auto vars:     Size  Location     Type
  4645 ;;		None
  4646 ;; Return value:  Size  Location     Type
  4647 ;;                  1    wreg      void 
  4648 ;; Registers used:
  4649 ;;		wreg
  4650 ;; Tracked objects:
  4651 ;;		On entry : 0/0
  4652 ;;		On exit  : 0/0
  4653 ;;		Unchanged: 0/0
  4654 ;; Data sizes:     COMMON   BANK0   BANK1   BANK2   BANK3   BANK4   BANK5   BANK6   BANK7   BANK8   BANK9  BANK10  BANK1
      +1  BANK12
  4655 ;;      Params:         0       2       0       0       0       0       0       0       0       0       0       0       
      +0       0
  4656 ;;      Locals:         0       0       0       0       0       0       0       0       0       0       0       0       
      +0       0
  4657 ;;      Temps:          0       0       0       0       0       0       0       0       0       0       0       0       
      +0       0
  4658 ;;      Totals:         0       2       0       0       0       0       0       0       0       0       0       0       
      +0       0
  4659 ;;Total ram usage:        2 bytes
  4660 ;; Hardware stack levels used:    1
  4661 ;; Hardware stack levels required when called:    4
  4662 ;; This function calls:
  4663 ;;		Nothing
  4664 ;; This function is called by:
  4665 ;;		_EUSART1_Initialize
  4666 ;;		_main
  4667 ;; This function uses a non-reentrant model
  4668 ;;
  4669                           
  4670                           
  4671                           ;psect for function _EUSART1_SetRxInterruptHandler
  4672  041A                     _EUSART1_SetRxInterruptHandler:	
  4673  041A                     l1795:	
  4674                           ;incstack = 0
  4675                           ; Regs used in _EUSART1_SetRxInterruptHandler: [wreg]
  4676                           
  4677                           
  4678                           ;mcc_generated_files/eusart1.c: 235:     EUSART1_RxDefaultInterruptHandler = interruptHa
      +                          ndler;
  4679  041A  0140               	movlb	0	; select bank0
  4680  041B  083D               	movf	EUSART1_SetRxInterruptHandler@interruptHandler+1,w
  4681  041C  00B9               	movwf	_EUSART1_RxDefaultInterruptHandler+1
  4682  041D  083C               	movf	EUSART1_SetRxInterruptHandler@interruptHandler,w
  4683  041E  00B8               	movwf	_EUSART1_RxDefaultInterruptHandler
  4684  041F                     l404:	
  4685  041F  0008               	return
  4686  0420                     __end_of_EUSART1_SetRxInterruptHandler:	
  4687                           
  4688                           	psect	text12
  4689  0420                     __ptext12:	
  4690 ;; *************** function _EUSART1_SetOverrunErrorHandler *****************
  4691 ;; Defined at:
  4692 ;;		line 225 in file "mcc_generated_files/eusart1.c"
  4693 ;; Parameters:    Size  Location     Type
  4694 ;;  interruptHan    2    0[BANK0 ] PTR FTN()void 
  4695 ;;		 -> EUSART1_DefaultOverrunErrorHandler(1), 
  4696 ;; Auto vars:     Size  Location     Type
  4697 ;;		None
  4698 ;; Return value:  Size  Location     Type
  4699 ;;                  1    wreg      void 
  4700 ;; Registers used:
  4701 ;;		wreg
  4702 ;; Tracked objects:
  4703 ;;		On entry : 0/0
  4704 ;;		On exit  : 0/0
  4705 ;;		Unchanged: 0/0
  4706 ;; Data sizes:     COMMON   BANK0   BANK1   BANK2   BANK3   BANK4   BANK5   BANK6   BANK7   BANK8   BANK9  BANK10  BANK1
      +1  BANK12
  4707 ;;      Params:         0       2       0       0       0       0       0       0       0       0       0       0       
      +0       0
  4708 ;;      Locals:         0       0       0       0       0       0       0       0       0       0       0       0       
      +0       0
  4709 ;;      Temps:          0       0       0       0       0       0       0       0       0       0       0       0       
      +0       0
  4710 ;;      Totals:         0       2       0       0       0       0       0       0       0       0       0       0       
      +0       0
  4711 ;;Total ram usage:        2 bytes
  4712 ;; Hardware stack levels used:    1
  4713 ;; Hardware stack levels required when called:    4
  4714 ;; This function calls:
  4715 ;;		Nothing
  4716 ;; This function is called by:
  4717 ;;		_EUSART1_Initialize
  4718 ;; This function uses a non-reentrant model
  4719 ;;
  4720                           
  4721                           
  4722                           ;psect for function _EUSART1_SetOverrunErrorHandler
  4723  0420                     _EUSART1_SetOverrunErrorHandler:	
  4724  0420                     l1799:	
  4725                           ;incstack = 0
  4726                           ; Regs used in _EUSART1_SetOverrunErrorHandler: [wreg]
  4727                           
  4728                           
  4729                           ;mcc_generated_files/eusart1.c: 226:     EUSART1_OverrunErrorHandler = interruptHandler;
  4730  0420  0140               	movlb	0	; select bank0
  4731  0421  083D               	movf	EUSART1_SetOverrunErrorHandler@interruptHandler+1,w
  4732  0422  00B3               	movwf	_EUSART1_OverrunErrorHandler+1
  4733  0423  083C               	movf	EUSART1_SetOverrunErrorHandler@interruptHandler,w
  4734  0424  00B2               	movwf	_EUSART1_OverrunErrorHandler
  4735  0425                     l398:	
  4736  0425  0008               	return
  4737  0426                     __end_of_EUSART1_SetOverrunErrorHandler:	
  4738                           
  4739                           	psect	text13
  4740  0426                     __ptext13:	
  4741 ;; *************** function _EUSART1_SetFramingErrorHandler *****************
  4742 ;; Defined at:
  4743 ;;		line 221 in file "mcc_generated_files/eusart1.c"
  4744 ;; Parameters:    Size  Location     Type
  4745 ;;  interruptHan    2    0[BANK0 ] PTR FTN()void 
  4746 ;;		 -> EUSART1_DefaultFramingErrorHandler(1), 
  4747 ;; Auto vars:     Size  Location     Type
  4748 ;;		None
  4749 ;; Return value:  Size  Location     Type
  4750 ;;                  1    wreg      void 
  4751 ;; Registers used:
  4752 ;;		wreg
  4753 ;; Tracked objects:
  4754 ;;		On entry : 0/0
  4755 ;;		On exit  : 0/0
  4756 ;;		Unchanged: 0/0
  4757 ;; Data sizes:     COMMON   BANK0   BANK1   BANK2   BANK3   BANK4   BANK5   BANK6   BANK7   BANK8   BANK9  BANK10  BANK1
      +1  BANK12
  4758 ;;      Params:         0       2       0       0       0       0       0       0       0       0       0       0       
      +0       0
  4759 ;;      Locals:         0       0       0       0       0       0       0       0       0       0       0       0       
      +0       0
  4760 ;;      Temps:          0       0       0       0       0       0       0       0       0       0       0       0       
      +0       0
  4761 ;;      Totals:         0       2       0       0       0       0       0       0       0       0       0       0       
      +0       0
  4762 ;;Total ram usage:        2 bytes
  4763 ;; Hardware stack levels used:    1
  4764 ;; Hardware stack levels required when called:    4
  4765 ;; This function calls:
  4766 ;;		Nothing
  4767 ;; This function is called by:
  4768 ;;		_EUSART1_Initialize
  4769 ;; This function uses a non-reentrant model
  4770 ;;
  4771                           
  4772                           
  4773                           ;psect for function _EUSART1_SetFramingErrorHandler
  4774  0426                     _EUSART1_SetFramingErrorHandler:	
  4775  0426                     l1797:	
  4776                           ;incstack = 0
  4777                           ; Regs used in _EUSART1_SetFramingErrorHandler: [wreg]
  4778                           
  4779                           
  4780                           ;mcc_generated_files/eusart1.c: 222:     EUSART1_FramingErrorHandler = interruptHandler;
  4781  0426  0140               	movlb	0	; select bank0
  4782  0427  083D               	movf	EUSART1_SetFramingErrorHandler@interruptHandler+1,w
  4783  0428  00B5               	movwf	_EUSART1_FramingErrorHandler+1
  4784  0429  083C               	movf	EUSART1_SetFramingErrorHandler@interruptHandler,w
  4785  042A  00B4               	movwf	_EUSART1_FramingErrorHandler
  4786  042B                     l395:	
  4787  042B  0008               	return
  4788  042C                     __end_of_EUSART1_SetFramingErrorHandler:	
  4789                           
  4790                           	psect	text14
  4791  042C                     __ptext14:	
  4792 ;; *************** function _EUSART1_SetErrorHandler *****************
  4793 ;; Defined at:
  4794 ;;		line 229 in file "mcc_generated_files/eusart1.c"
  4795 ;; Parameters:    Size  Location     Type
  4796 ;;  interruptHan    2    0[BANK0 ] PTR FTN()void 
  4797 ;;		 -> EUSART1_DefaultErrorHandler(1), 
  4798 ;; Auto vars:     Size  Location     Type
  4799 ;;		None
  4800 ;; Return value:  Size  Location     Type
  4801 ;;                  1    wreg      void 
  4802 ;; Registers used:
  4803 ;;		wreg
  4804 ;; Tracked objects:
  4805 ;;		On entry : 0/0
  4806 ;;		On exit  : 0/0
  4807 ;;		Unchanged: 0/0
  4808 ;; Data sizes:     COMMON   BANK0   BANK1   BANK2   BANK3   BANK4   BANK5   BANK6   BANK7   BANK8   BANK9  BANK10  BANK1
      +1  BANK12
  4809 ;;      Params:         0       2       0       0       0       0       0       0       0       0       0       0       
      +0       0
  4810 ;;      Locals:         0       0       0       0       0       0       0       0       0       0       0       0       
      +0       0
  4811 ;;      Temps:          0       0       0       0       0       0       0       0       0       0       0       0       
      +0       0
  4812 ;;      Totals:         0       2       0       0       0       0       0       0       0       0       0       0       
      +0       0
  4813 ;;Total ram usage:        2 bytes
  4814 ;; Hardware stack levels used:    1
  4815 ;; Hardware stack levels required when called:    4
  4816 ;; This function calls:
  4817 ;;		Nothing
  4818 ;; This function is called by:
  4819 ;;		_EUSART1_Initialize
  4820 ;; This function uses a non-reentrant model
  4821 ;;
  4822                           
  4823                           
  4824                           ;psect for function _EUSART1_SetErrorHandler
  4825  042C                     _EUSART1_SetErrorHandler:	
  4826  042C                     l1801:	
  4827                           ;incstack = 0
  4828                           ; Regs used in _EUSART1_SetErrorHandler: [wreg]
  4829                           
  4830                           
  4831                           ;mcc_generated_files/eusart1.c: 230:     EUSART1_ErrorHandler = interruptHandler;
  4832  042C  0140               	movlb	0	; select bank0
  4833  042D  083D               	movf	EUSART1_SetErrorHandler@interruptHandler+1,w
  4834  042E  00B1               	movwf	_EUSART1_ErrorHandler+1
  4835  042F  083C               	movf	EUSART1_SetErrorHandler@interruptHandler,w
  4836  0430  00B0               	movwf	_EUSART1_ErrorHandler
  4837  0431                     l401:	
  4838  0431  0008               	return
  4839  0432                     __end_of_EUSART1_SetErrorHandler:	
  4840                           
  4841                           	psect	text15
  4842  03BD                     __ptext15:	
  4843 ;; *************** function _CLC1_Initialize *****************
  4844 ;; Defined at:
  4845 ;;		line 58 in file "mcc_generated_files/clc1.c"
  4846 ;; Parameters:    Size  Location     Type
  4847 ;;		None
  4848 ;; Auto vars:     Size  Location     Type
  4849 ;;		None
  4850 ;; Return value:  Size  Location     Type
  4851 ;;                  1    wreg      void 
  4852 ;; Registers used:
  4853 ;;		wreg, status,2
  4854 ;; Tracked objects:
  4855 ;;		On entry : 0/0
  4856 ;;		On exit  : 0/0
  4857 ;;		Unchanged: 0/0
  4858 ;; Data sizes:     COMMON   BANK0   BANK1   BANK2   BANK3   BANK4   BANK5   BANK6   BANK7   BANK8   BANK9  BANK10  BANK1
      +1  BANK12
  4859 ;;      Params:         0       0       0       0       0       0       0       0       0       0       0       0       
      +0       0
  4860 ;;      Locals:         0       0       0       0       0       0       0       0       0       0       0       0       
      +0       0
  4861 ;;      Temps:          0       0       0       0       0       0       0       0       0       0       0       0       
      +0       0
  4862 ;;      Totals:         0       0       0       0       0       0       0       0       0       0       0       0       
      +0       0
  4863 ;;Total ram usage:        0 bytes
  4864 ;; Hardware stack levels used:    1
  4865 ;; Hardware stack levels required when called:    4
  4866 ;; This function calls:
  4867 ;;		Nothing
  4868 ;; This function is called by:
  4869 ;;		_SYSTEM_Initialize
  4870 ;; This function uses a non-reentrant model
  4871 ;;
  4872                           
  4873                           
  4874                           ;psect for function _CLC1_Initialize
  4875  03BD                     _CLC1_Initialize:	
  4876  03BD                     l1885:	
  4877                           ;incstack = 0
  4878                           ; Regs used in _CLC1_Initialize: [wreg+status,2]
  4879                           
  4880                           
  4881                           ;mcc_generated_files/clc1.c: 63:     CLC1POL = 0x0E;
  4882  03BD  300E               	movlw	14
  4883  03BE  017C               	movlb	60	; select bank60
  4884  03BF  0091               	movwf	17	;volatile
  4885  03C0                     l1887:	
  4886                           
  4887                           ;mcc_generated_files/clc1.c: 65:     CLC1SEL0 = 0x00;
  4888  03C0  0192               	clrf	18	;volatile
  4889  03C1                     l1889:	
  4890                           
  4891                           ;mcc_generated_files/clc1.c: 67:     CLC1SEL1 = 0x00;
  4892  03C1  0193               	clrf	19	;volatile
  4893  03C2                     l1891:	
  4894                           
  4895                           ;mcc_generated_files/clc1.c: 69:     CLC1SEL2 = 0x00;
  4896  03C2  0194               	clrf	20	;volatile
  4897  03C3                     l1893:	
  4898                           
  4899                           ;mcc_generated_files/clc1.c: 71:     CLC1SEL3 = 0x00;
  4900  03C3  0195               	clrf	21	;volatile
  4901                           
  4902                           ;mcc_generated_files/clc1.c: 73:     CLC1GLS0 = 0x02;
  4903  03C4  3002               	movlw	2
  4904  03C5  0096               	movwf	22	;volatile
  4905  03C6                     l1895:	
  4906                           
  4907                           ;mcc_generated_files/clc1.c: 75:     CLC1GLS1 = 0x00;
  4908  03C6  0197               	clrf	23	;volatile
  4909  03C7                     l1897:	
  4910                           
  4911                           ;mcc_generated_files/clc1.c: 77:     CLC1GLS2 = 0x00;
  4912  03C7  0198               	clrf	24	;volatile
  4913  03C8                     l1899:	
  4914                           
  4915                           ;mcc_generated_files/clc1.c: 79:     CLC1GLS3 = 0x00;
  4916  03C8  0199               	clrf	25	;volatile
  4917  03C9                     l1901:	
  4918                           
  4919                           ;mcc_generated_files/clc1.c: 81:     CLC1CON = 0x82;
  4920  03C9  3082               	movlw	130
  4921  03CA  0090               	movwf	16	;volatile
  4922  03CB                     l429:	
  4923  03CB  0008               	return
  4924  03CC                     __end_of_CLC1_Initialize:	
  4925                           
  4926                           	psect	intentry
  4927  0004                     __pintentry:	
  4928 ;; *************** function _INTERRUPT_InterruptManager *****************
  4929 ;; Defined at:
  4930 ;;		line 52 in file "mcc_generated_files/interrupt_manager.c"
  4931 ;; Parameters:    Size  Location     Type
  4932 ;;		None
  4933 ;; Auto vars:     Size  Location     Type
  4934 ;;		None
  4935 ;; Return value:  Size  Location     Type
  4936 ;;                  1    wreg      void 
  4937 ;; Registers used:
  4938 ;;		wreg, fsr1l, fsr1h, status,2, status,0, pclath, cstack
  4939 ;; Tracked objects:
  4940 ;;		On entry : 0/0
  4941 ;;		On exit  : 0/0
  4942 ;;		Unchanged: 0/0
  4943 ;; Data sizes:     COMMON   BANK0   BANK1   BANK2   BANK3   BANK4   BANK5   BANK6   BANK7   BANK8   BANK9  BANK10  BANK1
      +1  BANK12
  4944 ;;      Params:         0       0       0       0       0       0       0       0       0       0       0       0       
      +0       0
  4945 ;;      Locals:         0       0       0       0       0       0       0       0       0       0       0       0       
      +0       0
  4946 ;;      Temps:          0       0       0       0       0       0       0       0       0       0       0       0       
      +0       0
  4947 ;;      Totals:         0       0       0       0       0       0       0       0       0       0       0       0       
      +0       0
  4948 ;;Total ram usage:        0 bytes
  4949 ;; Hardware stack levels used:    1
  4950 ;; Hardware stack levels required when called:    3
  4951 ;; This function calls:
  4952 ;;		Absolute function
  4953 ;;		_EUSART1_Receive_ISR
  4954 ;;		_SPI1_Isr
  4955 ;;		_TMR0_ISR
  4956 ;;		_eusart1RxDataHandler
  4957 ;;		_spi1InterruptHandler
  4958 ;; This function is called by:
  4959 ;;		Interrupt level 1
  4960 ;; This function uses a non-reentrant model
  4961 ;;
  4962                           
  4963  0004                     _INTERRUPT_InterruptManager:	
  4964                           
  4965                           ;incstack = 0
  4966  0004  147E               	bsf	int$flags,0	;set compiler interrupt flag (level 1)
  4967                           
  4968                           ; Regs used in _INTERRUPT_InterruptManager: [wreg+fsr1l+fsr1h+status,2+status,0+pclath+c
      +                          stack]
  4969  0005  3180               	pagesel	$
  4970  0006                     i1l1721:	
  4971                           
  4972                           ;mcc_generated_files/interrupt_manager.c: 55:     if(PIE0bits.TMR0IE == 1 && PIR0bits.TM
      +                          R0IF == 1)
  4973  0006  014E               	movlb	14	; select bank14
  4974  0007  1E96               	btfss	22,5	;volatile
  4975  0008  280A               	goto	u78_21
  4976  0009  280B               	goto	u78_20
  4977  000A                     u78_21:	
  4978  000A  2813               	goto	i1l226
  4979  000B                     u78_20:	
  4980  000B                     i1l1723:	
  4981  000B  1E8C               	btfss	12,5	;volatile
  4982  000C  280E               	goto	u79_21
  4983  000D  280F               	goto	u79_20
  4984  000E                     u79_21:	
  4985  000E  2813               	goto	i1l226
  4986  000F                     u79_20:	
  4987  000F                     i1l1725:	
  4988                           
  4989                           ;mcc_generated_files/interrupt_manager.c: 56:     {;mcc_generated_files/interrupt_manage
      +                          r.c: 57:         TMR0_ISR();
  4990  000F  3183  23CC  3180   	fcall	_TMR0_ISR
  4991                           
  4992                           ;mcc_generated_files/interrupt_manager.c: 58:     }
  4993  0012  2835               	goto	i1l234
  4994  0013                     i1l226:	
  4995                           ;mcc_generated_files/interrupt_manager.c: 59:     else if(INTCONbits.PEIE == 1)
  4996                           
  4997  0013  1F0B               	btfss	11,6	;volatile
  4998  0014  2816               	goto	u80_21
  4999  0015  2817               	goto	u80_20
  5000  0016                     u80_21:	
  5001  0016  2835               	goto	i1l234
  5002  0017                     u80_20:	
  5003  0017                     i1l1727:	
  5004                           
  5005                           ;mcc_generated_files/interrupt_manager.c: 60:     {;mcc_generated_files/interrupt_manage
      +                          r.c: 61:         if(PIE3bits.SSP1IE == 1 && PIR3bits.SSP1IF == 1)
  5006  0017  1C19               	btfss	25,0	;volatile
  5007  0018  281A               	goto	u81_21
  5008  0019  281B               	goto	u81_20
  5009  001A                     u81_21:	
  5010  001A  2826               	goto	i1l229
  5011  001B                     u81_20:	
  5012  001B                     i1l1729:	
  5013  001B  1C0F               	btfss	15,0	;volatile
  5014  001C  281E               	goto	u82_21
  5015  001D  281F               	goto	u82_20
  5016  001E                     u82_21:	
  5017  001E  2826               	goto	i1l229
  5018  001F                     u82_20:	
  5019  001F                     i1l1731:	
  5020                           
  5021                           ;mcc_generated_files/interrupt_manager.c: 62:         {;mcc_generated_files/interrupt_ma
      +                          nager.c: 63:             MSSP1_InterruptHandler();
  5022  001F  0140               	movlb	0	; select bank0
  5023  0020  0845               	movf	_MSSP1_InterruptHandler+1,w
  5024  0021  008A               	movwf	10
  5025  0022  0844               	movf	_MSSP1_InterruptHandler,w
  5026  0023  000A               	callw
  5027  0024  3180               	pagesel	$
  5028                           
  5029                           ;mcc_generated_files/interrupt_manager.c: 64:         }
  5030  0025  2835               	goto	i1l234
  5031  0026                     i1l229:	
  5032                           ;mcc_generated_files/interrupt_manager.c: 65:         else if(PIE3bits.RC1IE == 1 && PIR
      +                          3bits.RC1IF == 1)
  5033                           
  5034  0026  1E99               	btfss	25,5	;volatile
  5035  0027  2829               	goto	u83_21
  5036  0028  282A               	goto	u83_20
  5037  0029                     u83_21:	
  5038  0029  2835               	goto	i1l233
  5039  002A                     u83_20:	
  5040  002A                     i1l1733:	
  5041  002A  1E8F               	btfss	15,5	;volatile
  5042  002B  282D               	goto	u84_21
  5043  002C  282E               	goto	u84_20
  5044  002D                     u84_21:	
  5045  002D  2835               	goto	i1l233
  5046  002E                     u84_20:	
  5047  002E                     i1l1735:	
  5048                           
  5049                           ;mcc_generated_files/interrupt_manager.c: 66:         {;mcc_generated_files/interrupt_ma
      +                          nager.c: 67:             EUSART1_RxDefaultInterruptHandler();
  5050  002E  0140               	movlb	0	; select bank0
  5051  002F  0839               	movf	_EUSART1_RxDefaultInterruptHandler+1,w
  5052  0030  008A               	movwf	10
  5053  0031  0838               	movf	_EUSART1_RxDefaultInterruptHandler,w
  5054  0032  000A               	callw
  5055  0033  3180               	pagesel	$
  5056                           
  5057                           ;mcc_generated_files/interrupt_manager.c: 68:         }
  5058  0034  2835               	goto	i1l234
  5059  0035                     i1l233:	
  5060                           ;mcc_generated_files/interrupt_manager.c: 75:     {;mcc_generated_files/interrupt_manage
      +                          r.c: 77:     }
  5061                           
  5062  0035                     i1l234:	
  5063  0035  107E               	bcf	int$flags,0	;clear compiler interrupt flag (level 1)
  5064  0036  0009               	retfie
  5065  0037                     __end_of_INTERRUPT_InterruptManager:	
  5066                           
  5067                           	psect	text17
  5068  0260                     __ptext17:	
  5069 ;; *************** function _EUSART1_Receive_ISR *****************
  5070 ;; Defined at:
  5071 ;;		line 173 in file "mcc_generated_files/eusart1.c"
  5072 ;; Parameters:    Size  Location     Type
  5073 ;;		None
  5074 ;; Auto vars:     Size  Location     Type
  5075 ;;		None
  5076 ;; Return value:  Size  Location     Type
  5077 ;;                  1    wreg      void 
  5078 ;; Registers used:
  5079 ;;		wreg, fsr1l, fsr1h, status,2, status,0, pclath, cstack
  5080 ;; Tracked objects:
  5081 ;;		On entry : 0/0
  5082 ;;		On exit  : 0/0
  5083 ;;		Unchanged: 0/0
  5084 ;; Data sizes:     COMMON   BANK0   BANK1   BANK2   BANK3   BANK4   BANK5   BANK6   BANK7   BANK8   BANK9  BANK10  BANK1
      +1  BANK12
  5085 ;;      Params:         0       0       0       0       0       0       0       0       0       0       0       0       
      +0       0
  5086 ;;      Locals:         0       0       0       0       0       0       0       0       0       0       0       0       
      +0       0
  5087 ;;      Temps:          0       0       0       0       0       0       0       0       0       0       0       0       
      +0       0
  5088 ;;      Totals:         0       0       0       0       0       0       0       0       0       0       0       0       
      +0       0
  5089 ;;Total ram usage:        0 bytes
  5090 ;; Hardware stack levels used:    1
  5091 ;; Hardware stack levels required when called:    2
  5092 ;; This function calls:
  5093 ;;		Absolute function
  5094 ;;		_EUSART1_DefaultErrorHandler
  5095 ;;		_EUSART1_DefaultFramingErrorHandler
  5096 ;;		_EUSART1_DefaultOverrunErrorHandler
  5097 ;;		_EUSART1_RxDataHandler
  5098 ;; This function is called by:
  5099 ;;		_EUSART1_Initialize
  5100 ;;		_INTERRUPT_InterruptManager
  5101 ;; This function uses a non-reentrant model
  5102 ;;
  5103                           
  5104                           
  5105                           ;psect for function _EUSART1_Receive_ISR
  5106  0260                     _EUSART1_Receive_ISR:	
  5107  0260                     i1l1691:	
  5108                           ;incstack = 0
  5109                           ; Regs used in _EUSART1_Receive_ISR: [wreg+fsr1l+fsr1h+status,2+status,0+pclath+cstack]
  5110                           
  5111                           
  5112                           ;mcc_generated_files/eusart1.c: 176:     eusart1RxStatusBuffer[eusart1RxHead].status = 0
      +                          ;
  5113  0260  0875               	movf	_eusart1RxHead,w	;volatile
  5114  0261  3E20               	addlw	(low (_eusart1RxStatusBuffer| 0))& (0+255)
  5115  0262  0086               	movwf	6
  5116  0263  0187               	clrf	7
  5117  0264  0181               	clrf	1
  5118  0265                     i1l1693:	
  5119                           
  5120                           ;mcc_generated_files/eusart1.c: 178:     if(RC1STAbits.FERR){
  5121  0265  0142               	movlb	2	; select bank2
  5122  0266  1D1D               	btfss	29,2	;volatile
  5123  0267  2A69               	goto	u75_21
  5124  0268  2A6A               	goto	u75_20
  5125  0269                     u75_21:	
  5126  0269  2A75               	goto	i1l1699
  5127  026A                     u75_20:	
  5128  026A                     i1l1695:	
  5129                           
  5130                           ;mcc_generated_files/eusart1.c: 179:         eusart1RxStatusBuffer[eusart1RxHead].ferr =
      +                           1;
  5131  026A  0875               	movf	_eusart1RxHead,w	;volatile
  5132  026B  3E20               	addlw	(low (_eusart1RxStatusBuffer| 0))& (0+255)
  5133  026C  0086               	movwf	6
  5134  026D  0187               	clrf	7
  5135  026E  1481               	bsf	1,1
  5136  026F                     i1l1697:	
  5137                           
  5138                           ;mcc_generated_files/eusart1.c: 180:         EUSART1_FramingErrorHandler();
  5139  026F  0140               	movlb	0	; select bank0
  5140  0270  0835               	movf	_EUSART1_FramingErrorHandler+1,w
  5141  0271  008A               	movwf	10
  5142  0272  0834               	movf	_EUSART1_FramingErrorHandler,w
  5143  0273  000A               	callw
  5144  0274  3182               	pagesel	$
  5145  0275                     i1l1699:	
  5146                           
  5147                           ;mcc_generated_files/eusart1.c: 183:     if(RC1STAbits.OERR){
  5148  0275  0142               	movlb	2	; select bank2
  5149  0276  1C9D               	btfss	29,1	;volatile
  5150  0277  2A79               	goto	u76_21
  5151  0278  2A7A               	goto	u76_20
  5152  0279                     u76_21:	
  5153  0279  2A85               	goto	i1l1705
  5154  027A                     u76_20:	
  5155  027A                     i1l1701:	
  5156                           
  5157                           ;mcc_generated_files/eusart1.c: 184:         eusart1RxStatusBuffer[eusart1RxHead].oerr =
      +                           1;
  5158  027A  0875               	movf	_eusart1RxHead,w	;volatile
  5159  027B  3E20               	addlw	(low (_eusart1RxStatusBuffer| 0))& (0+255)
  5160  027C  0086               	movwf	6
  5161  027D  0187               	clrf	7
  5162  027E  1501               	bsf	1,2
  5163  027F                     i1l1703:	
  5164                           
  5165                           ;mcc_generated_files/eusart1.c: 185:         EUSART1_OverrunErrorHandler();
  5166  027F  0140               	movlb	0	; select bank0
  5167  0280  0833               	movf	_EUSART1_OverrunErrorHandler+1,w
  5168  0281  008A               	movwf	10
  5169  0282  0832               	movf	_EUSART1_OverrunErrorHandler,w
  5170  0283  000A               	callw
  5171  0284  3182               	pagesel	$
  5172  0285                     i1l1705:	
  5173                           
  5174                           ;mcc_generated_files/eusart1.c: 188:     if(eusart1RxStatusBuffer[eusart1RxHead].status)
      +                          {
  5175  0285  0875               	movf	_eusart1RxHead,w	;volatile
  5176  0286  3E20               	addlw	(low (_eusart1RxStatusBuffer| 0))& (0+255)
  5177  0287  0086               	movwf	6
  5178  0288  0187               	clrf	7
  5179  0289  0801               	movf	1,w
  5180  028A  1903               	btfsc	3,2
  5181  028B  2A8D               	goto	u77_21
  5182  028C  2A8E               	goto	u77_20
  5183  028D                     u77_21:	
  5184  028D  2A95               	goto	i1l1709
  5185  028E                     u77_20:	
  5186  028E                     i1l1707:	
  5187                           
  5188                           ;mcc_generated_files/eusart1.c: 189:         EUSART1_ErrorHandler();
  5189  028E  0140               	movlb	0	; select bank0
  5190  028F  0831               	movf	_EUSART1_ErrorHandler+1,w
  5191  0290  008A               	movwf	10
  5192  0291  0830               	movf	_EUSART1_ErrorHandler,w
  5193  0292  000A               	callw
  5194  0293  3182               	pagesel	$
  5195                           
  5196                           ;mcc_generated_files/eusart1.c: 190:     } else {
  5197  0294  2A98               	goto	i1l379
  5198  0295                     i1l1709:	
  5199                           
  5200                           ;mcc_generated_files/eusart1.c: 191:         EUSART1_RxDataHandler();
  5201  0295  3183  2354  3182   	fcall	_EUSART1_RxDataHandler
  5202  0298                     i1l379:	
  5203  0298  0008               	return
  5204  0299                     __end_of_EUSART1_Receive_ISR:	
  5205                           
  5206                           	psect	text18
  5207  03AC                     __ptext18:	
  5208 ;; *************** function _eusart1RxDataHandler *****************
  5209 ;; Defined at:
  5210 ;;		line 104 in file "main.c"
  5211 ;; Parameters:    Size  Location     Type
  5212 ;;		None
  5213 ;; Auto vars:     Size  Location     Type
  5214 ;;		None
  5215 ;; Return value:  Size  Location     Type
  5216 ;;                  1    wreg      void 
  5217 ;; Registers used:
  5218 ;;		wreg, status,2, status,0, pclath, cstack
  5219 ;; Tracked objects:
  5220 ;;		On entry : 0/0
  5221 ;;		On exit  : 0/0
  5222 ;;		Unchanged: 0/0
  5223 ;; Data sizes:     COMMON   BANK0   BANK1   BANK2   BANK3   BANK4   BANK5   BANK6   BANK7   BANK8   BANK9  BANK10  BANK1
      +1  BANK12
  5224 ;;      Params:         0       0       0       0       0       0       0       0       0       0       0       0       
      +0       0
  5225 ;;      Locals:         0       0       0       0       0       0       0       0       0       0       0       0       
      +0       0
  5226 ;;      Temps:          1       0       0       0       0       0       0       0       0       0       0       0       
      +0       0
  5227 ;;      Totals:         1       0       0       0       0       0       0       0       0       0       0       0       
      +0       0
  5228 ;;Total ram usage:        1 bytes
  5229 ;; Hardware stack levels used:    1
  5230 ;; Hardware stack levels required when called:    1
  5231 ;; This function calls:
  5232 ;;		_EUSART1_Write
  5233 ;; This function is called by:
  5234 ;;		_main
  5235 ;;		_INTERRUPT_InterruptManager
  5236 ;; This function uses a non-reentrant model
  5237 ;;
  5238                           
  5239                           
  5240                           ;psect for function _eusart1RxDataHandler
  5241  03AC                     _eusart1RxDataHandler:	
  5242  03AC                     i1l1711:	
  5243                           ;incstack = 0
  5244                           ; Regs used in _eusart1RxDataHandler: [wreg+status,2+status,0+pclath+cstack]
  5245                           
  5246                           
  5247                           ;main.c: 105:     idleStart = 0;
  5248  03AC  0140               	movlb	0	; select bank0
  5249  03AD  01C3               	clrf	_idleStart
  5250  03AE                     i1l1713:	
  5251                           
  5252                           ;main.c: 106:     EUSART1_Write(lastData);
  5253  03AE  083A               	movf	_lastData,w
  5254  03AF  3183  23F6  3183   	fcall	_EUSART1_Write
  5255  03B2                     i1l1715:	
  5256                           
  5257                           ;main.c: 107:     lastData = RC1REG;
  5258  03B2  0142               	movlb	2	; select bank2
  5259  03B3  0819               	movf	25,w	;volatile
  5260  03B4  00F7               	movwf	??_eusart1RxDataHandler
  5261  03B5  0877               	movf	??_eusart1RxDataHandler,w
  5262  03B6  0140               	movlb	0	; select bank0
  5263  03B7  00BA               	movwf	_lastData
  5264  03B8                     i1l1717:	
  5265                           
  5266                           ;main.c: 108:     TMR0L = 0x00;
  5267  03B8  014B               	movlb	11	; select bank11
  5268  03B9  019C               	clrf	28	;volatile
  5269  03BA                     i1l1719:	
  5270                           
  5271                           ;main.c: 109:     PIR3bits.RC1IF = 0;
  5272  03BA  014E               	movlb	14	; select bank14
  5273  03BB  128F               	bcf	15,5	;volatile
  5274  03BC                     i1l488:	
  5275  03BC  0008               	return
  5276  03BD                     __end_of_eusart1RxDataHandler:	
  5277                           
  5278                           	psect	text19
  5279  03F6                     __ptext19:	
  5280 ;; *************** function _EUSART1_Write *****************
  5281 ;; Defined at:
  5282 ;;		line 162 in file "mcc_generated_files/eusart1.c"
  5283 ;; Parameters:    Size  Location     Type
  5284 ;;  txData          1    wreg     unsigned char 
  5285 ;; Auto vars:     Size  Location     Type
  5286 ;;  txData          1    0[COMMON] unsigned char 
  5287 ;; Return value:  Size  Location     Type
  5288 ;;                  1    wreg      void 
  5289 ;; Registers used:
  5290 ;;		wreg
  5291 ;; Tracked objects:
  5292 ;;		On entry : 0/0
  5293 ;;		On exit  : 0/0
  5294 ;;		Unchanged: 0/0
  5295 ;; Data sizes:     COMMON   BANK0   BANK1   BANK2   BANK3   BANK4   BANK5   BANK6   BANK7   BANK8   BANK9  BANK10  BANK1
      +1  BANK12
  5296 ;;      Params:         0       0       0       0       0       0       0       0       0       0       0       0       
      +0       0
  5297 ;;      Locals:         1       0       0       0       0       0       0       0       0       0       0       0       
      +0       0
  5298 ;;      Temps:          0       0       0       0       0       0       0       0       0       0       0       0       
      +0       0
  5299 ;;      Totals:         1       0       0       0       0       0       0       0       0       0       0       0       
      +0       0
  5300 ;;Total ram usage:        1 bytes
  5301 ;; Hardware stack levels used:    1
  5302 ;; This function calls:
  5303 ;;		Nothing
  5304 ;; This function is called by:
  5305 ;;		_eusart1RxDataHandler
  5306 ;; This function uses a non-reentrant model
  5307 ;;
  5308                           
  5309                           
  5310                           ;psect for function _EUSART1_Write
  5311  03F6                     _EUSART1_Write:	
  5312                           
  5313                           ;incstack = 0
  5314                           ; Regs used in _EUSART1_Write: [wreg]
  5315                           ;EUSART1_Write@txData stored from wreg
  5316  03F6  00F6               	movwf	EUSART1_Write@txData
  5317  03F7                     i1l1653:	
  5318  03F7                     i1l369:	
  5319                           ;mcc_generated_files/eusart1.c: 165:     {;mcc_generated_files/eusart1.c: 166:     }
  5320                           
  5321                           
  5322                           ;mcc_generated_files/eusart1.c: 164:     while(0 == PIR3bits.TX1IF)
  5323  03F7  014E               	movlb	14	; select bank14
  5324  03F8  1E0F               	btfss	15,4	;volatile
  5325  03F9  2BFB               	goto	u71_21
  5326  03FA  2BFC               	goto	u71_20
  5327  03FB                     u71_21:	
  5328  03FB  2BF7               	goto	i1l369
  5329  03FC                     u71_20:	
  5330  03FC                     i1l1655:	
  5331                           
  5332                           ;mcc_generated_files/eusart1.c: 168:     TX1REG = txData;
  5333  03FC  0876               	movf	EUSART1_Write@txData,w
  5334  03FD  0142               	movlb	2	; select bank2
  5335  03FE  009A               	movwf	26	;volatile
  5336  03FF                     i1l372:	
  5337  03FF  0008               	return
  5338  0400                     __end_of_EUSART1_Write:	
  5339                           
  5340                           	psect	text20
  5341  03CC                     __ptext20:	
  5342 ;; *************** function _TMR0_ISR *****************
  5343 ;; Defined at:
  5344 ;;		line 121 in file "mcc_generated_files/tmr0.c"
  5345 ;; Parameters:    Size  Location     Type
  5346 ;;		None
  5347 ;; Auto vars:     Size  Location     Type
  5348 ;;		None
  5349 ;; Return value:  Size  Location     Type
  5350 ;;                  1    wreg      void 
  5351 ;; Registers used:
  5352 ;;		wreg, status,2, status,0, pclath, cstack
  5353 ;; Tracked objects:
  5354 ;;		On entry : 0/0
  5355 ;;		On exit  : 0/0
  5356 ;;		Unchanged: 0/0
  5357 ;; Data sizes:     COMMON   BANK0   BANK1   BANK2   BANK3   BANK4   BANK5   BANK6   BANK7   BANK8   BANK9  BANK10  BANK1
      +1  BANK12
  5358 ;;      Params:         0       0       0       0       0       0       0       0       0       0       0       0       
      +0       0
  5359 ;;      Locals:         0       0       0       0       0       0       0       0       0       0       0       0       
      +0       0
  5360 ;;      Temps:          0       0       0       0       0       0       0       0       0       0       0       0       
      +0       0
  5361 ;;      Totals:         0       0       0       0       0       0       0       0       0       0       0       0       
      +0       0
  5362 ;;Total ram usage:        0 bytes
  5363 ;; Hardware stack levels used:    1
  5364 ;; Hardware stack levels required when called:    2
  5365 ;; This function calls:
  5366 ;;		Absolute function
  5367 ;;		_TMR0_DefaultInterruptHandler
  5368 ;;		_tmr0InterruptHandler
  5369 ;; This function is called by:
  5370 ;;		_INTERRUPT_InterruptManager
  5371 ;; This function uses a non-reentrant model
  5372 ;;
  5373                           
  5374                           
  5375                           ;psect for function _TMR0_ISR
  5376  03CC                     _TMR0_ISR:	
  5377  03CC                     i1l1685:	
  5378                           ;incstack = 0
  5379                           ; Regs used in _TMR0_ISR: [wreg+status,2+status,0+pclath+cstack]
  5380                           
  5381                           
  5382                           ;mcc_generated_files/tmr0.c: 124:     PIR0bits.TMR0IF = 0;
  5383  03CC  014E               	movlb	14	; select bank14
  5384  03CD  128C               	bcf	12,5	;volatile
  5385  03CE                     i1l1687:	
  5386                           
  5387                           ;mcc_generated_files/tmr0.c: 125:     if(TMR0_InterruptHandler)
  5388  03CE  0140               	movlb	0	; select bank0
  5389  03CF  0836               	movf	_TMR0_InterruptHandler,w
  5390  03D0  0437               	iorwf	_TMR0_InterruptHandler+1,w
  5391  03D1  1903               	btfsc	3,2
  5392  03D2  2BD4               	goto	u74_21
  5393  03D3  2BD5               	goto	u74_20
  5394  03D4                     u74_21:	
  5395  03D4  2BDA               	goto	i1l276
  5396  03D5                     u74_20:	
  5397  03D5                     i1l1689:	
  5398                           
  5399                           ;mcc_generated_files/tmr0.c: 126:     {;mcc_generated_files/tmr0.c: 127:         TMR0_In
      +                          terruptHandler();
  5400  03D5  0837               	movf	_TMR0_InterruptHandler+1,w
  5401  03D6  008A               	movwf	10
  5402  03D7  0836               	movf	_TMR0_InterruptHandler,w
  5403  03D8  000A               	callw
  5404  03D9  3183               	pagesel	$
  5405  03DA                     i1l276:	
  5406  03DA  0008               	return
  5407  03DB                     __end_of_TMR0_ISR:	
  5408                           
  5409                           	psect	text21
  5410  0441                     __ptext21:	
  5411 ;; *************** function _TMR0_DefaultInterruptHandler *****************
  5412 ;; Defined at:
  5413 ;;		line 138 in file "mcc_generated_files/tmr0.c"
  5414 ;; Parameters:    Size  Location     Type
  5415 ;;		None
  5416 ;; Auto vars:     Size  Location     Type
  5417 ;;		None
  5418 ;; Return value:  Size  Location     Type
  5419 ;;                  1    wreg      void 
  5420 ;; Registers used:
  5421 ;;		None
  5422 ;; Tracked objects:
  5423 ;;		On entry : 0/0
  5424 ;;		On exit  : 0/0
  5425 ;;		Unchanged: 0/0
  5426 ;; Data sizes:     COMMON   BANK0   BANK1   BANK2   BANK3   BANK4   BANK5   BANK6   BANK7   BANK8   BANK9  BANK10  BANK1
      +1  BANK12
  5427 ;;      Params:         0       0       0       0       0       0       0       0       0       0       0       0       
      +0       0
  5428 ;;      Locals:         0       0       0       0       0       0       0       0       0       0       0       0       
      +0       0
  5429 ;;      Temps:          0       0       0       0       0       0       0       0       0       0       0       0       
      +0       0
  5430 ;;      Totals:         0       0       0       0       0       0       0       0       0       0       0       0       
      +0       0
  5431 ;;Total ram usage:        0 bytes
  5432 ;; Hardware stack levels used:    1
  5433 ;; This function calls:
  5434 ;;		Nothing
  5435 ;; This function is called by:
  5436 ;;		_TMR0_Initialize
  5437 ;;		_TMR0_ISR
  5438 ;; This function uses a non-reentrant model
  5439 ;;
  5440                           
  5441                           
  5442                           ;psect for function _TMR0_DefaultInterruptHandler
  5443  0441                     _TMR0_DefaultInterruptHandler:	
  5444  0441                     i1l282:	
  5445                           ;incstack = 0
  5446                           ; Regs used in _TMR0_DefaultInterruptHandler: []
  5447                           
  5448  0441  0008               	return
  5449  0442                     __end_of_TMR0_DefaultInterruptHandler:	
  5450                           
  5451                           	psect	text22
  5452  0299                     __ptext22:	
  5453 ;; *************** function _tmr0InterruptHandler *****************
  5454 ;; Defined at:
  5455 ;;		line 112 in file "main.c"
  5456 ;; Parameters:    Size  Location     Type
  5457 ;;		None
  5458 ;; Auto vars:     Size  Location     Type
  5459 ;;		None
  5460 ;; Return value:  Size  Location     Type
  5461 ;;                  1    wreg      void 
  5462 ;; Registers used:
  5463 ;;		wreg, status,2, status,0, pclath, cstack
  5464 ;; Tracked objects:
  5465 ;;		On entry : 0/0
  5466 ;;		On exit  : 0/0
  5467 ;;		Unchanged: 0/0
  5468 ;; Data sizes:     COMMON   BANK0   BANK1   BANK2   BANK3   BANK4   BANK5   BANK6   BANK7   BANK8   BANK9  BANK10  BANK1
      +1  BANK12
  5469 ;;      Params:         0       0       0       0       0       0       0       0       0       0       0       0       
      +0       0
  5470 ;;      Locals:         0       0       0       0       0       0       0       0       0       0       0       0       
      +0       0
  5471 ;;      Temps:          2       0       0       0       0       0       0       0       0       0       0       0       
      +0       0
  5472 ;;      Totals:         2       0       0       0       0       0       0       0       0       0       0       0       
      +0       0
  5473 ;;Total ram usage:        2 bytes
  5474 ;; Hardware stack levels used:    1
  5475 ;; Hardware stack levels required when called:    1
  5476 ;; This function calls:
  5477 ;;		i1_setDots
  5478 ;; This function is called by:
  5479 ;;		_main
  5480 ;;		_TMR0_ISR
  5481 ;; This function uses a non-reentrant model
  5482 ;;
  5483                           
  5484                           
  5485                           ;psect for function _tmr0InterruptHandler
  5486  0299                     _tmr0InterruptHandler:	
  5487  0299                     i1l1661:	
  5488                           ;incstack = 0
  5489                           ; Regs used in _tmr0InterruptHandler: [wreg+status,2+status,0+pclath+cstack]
  5490                           
  5491                           
  5492                           ;main.c: 113:     if (idleStart) {
  5493  0299  0140               	movlb	0	; select bank0
  5494  029A  0843               	movf	_idleStart,w
  5495  029B  1903               	btfsc	3,2
  5496  029C  2A9E               	goto	u72_21
  5497  029D  2A9F               	goto	u72_20
  5498  029E                     u72_21:	
  5499  029E  2ACA               	goto	i1l1669
  5500  029F                     u72_20:	
  5501  029F                     i1l1663:	
  5502                           
  5503                           ;main.c: 114:         if (((counter++)>>3) < 0x80)
  5504  029F  0842               	movf	_counter+1,w
  5505  02A0  00FA               	movwf	??_tmr0InterruptHandler+1
  5506  02A1  0841               	movf	_counter,w
  5507  02A2  00F9               	movwf	??_tmr0InterruptHandler
  5508  02A3  0AC1               	incf	_counter,f
  5509  02A4  1903               	skipnz
  5510  02A5  0AC2               	incf	_counter+1,f
  5511  02A6  36FA               	lsrf	??_tmr0InterruptHandler+1,f
  5512  02A7  0CF9               	rrf	??_tmr0InterruptHandler,f
  5513  02A8  36FA               	lsrf	??_tmr0InterruptHandler+1,f
  5514  02A9  0CF9               	rrf	??_tmr0InterruptHandler,f
  5515  02AA  36FA               	lsrf	??_tmr0InterruptHandler+1,f
  5516  02AB  0CF9               	rrf	??_tmr0InterruptHandler,f
  5517  02AC  3000               	movlw	0
  5518  02AD  027A               	subwf	??_tmr0InterruptHandler+1,w
  5519  02AE  3080               	movlw	128
  5520  02AF  1903               	skipnz
  5521  02B0  0279               	subwf	??_tmr0InterruptHandler,w
  5522  02B1  1803               	skipnc
  5523  02B2  2AB4               	goto	u73_21
  5524  02B3  2AB5               	goto	u73_20
  5525  02B4                     u73_21:	
  5526  02B4  2AC5               	goto	i1l1667
  5527  02B5                     u73_20:	
  5528  02B5                     i1l1665:	
  5529                           
  5530                           ;main.c: 115:             setDots( ((counter)>>3)&0x7F );
  5531  02B5  0842               	movf	_counter+1,w
  5532  02B6  00FA               	movwf	??_tmr0InterruptHandler+1
  5533  02B7  0841               	movf	_counter,w
  5534  02B8  00F9               	movwf	??_tmr0InterruptHandler
  5535  02B9  36FA               	lsrf	??_tmr0InterruptHandler+1,f
  5536  02BA  0CF9               	rrf	??_tmr0InterruptHandler,f
  5537  02BB  36FA               	lsrf	??_tmr0InterruptHandler+1,f
  5538  02BC  0CF9               	rrf	??_tmr0InterruptHandler,f
  5539  02BD  36FA               	lsrf	??_tmr0InterruptHandler+1,f
  5540  02BE  0CF9               	rrf	??_tmr0InterruptHandler,f
  5541  02BF  0879               	movf	??_tmr0InterruptHandler,w
  5542  02C0  397F               	andlw	127
  5543  02C1  3181  2125  3182   	fcall	i1_setDots
  5544  02C4  2ACE               	goto	i1l495
  5545  02C5                     i1l1667:	
  5546                           
  5547                           ;main.c: 117:             setDots(0x7F);
  5548  02C5  307F               	movlw	127
  5549  02C6  3181  2125  3182   	fcall	i1_setDots
  5550  02C9  2ACE               	goto	i1l495
  5551  02CA                     i1l1669:	
  5552                           
  5553                           ;main.c: 119:         setDots( lastData );
  5554  02CA  083A               	movf	_lastData,w
  5555  02CB  3181  2125  3182   	fcall	i1_setDots
  5556  02CE                     i1l495:	
  5557  02CE  0008               	return
  5558  02CF                     __end_of_tmr0InterruptHandler:	
  5559                           
  5560                           	psect	text23
  5561  0125                     __ptext23:	
  5562 ;; *************** function i1_setDots *****************
  5563 ;; Defined at:
  5564 ;;		line 57 in file "main.c"
  5565 ;; Parameters:    Size  Location     Type
  5566 ;;  newData         1    wreg     unsigned char 
  5567 ;; Auto vars:     Size  Location     Type
  5568 ;;  newData         1    2[COMMON] unsigned char 
  5569 ;; Return value:  Size  Location     Type
  5570 ;;                  1    wreg      void 
  5571 ;; Registers used:
  5572 ;;		wreg, status,2, status,0
  5573 ;; Tracked objects:
  5574 ;;		On entry : 0/0
  5575 ;;		On exit  : 0/0
  5576 ;;		Unchanged: 0/0
  5577 ;; Data sizes:     COMMON   BANK0   BANK1   BANK2   BANK3   BANK4   BANK5   BANK6   BANK7   BANK8   BANK9  BANK10  BANK1
      +1  BANK12
  5578 ;;      Params:         0       0       0       0       0       0       0       0       0       0       0       0       
      +0       0
  5579 ;;      Locals:         1       0       0       0       0       0       0       0       0       0       0       0       
      +0       0
  5580 ;;      Temps:          2       0       0       0       0       0       0       0       0       0       0       0       
      +0       0
  5581 ;;      Totals:         3       0       0       0       0       0       0       0       0       0       0       0       
      +0       0
  5582 ;;Total ram usage:        3 bytes
  5583 ;; Hardware stack levels used:    1
  5584 ;; This function calls:
  5585 ;;		Nothing
  5586 ;; This function is called by:
  5587 ;;		_tmr0InterruptHandler
  5588 ;; This function uses a non-reentrant model
  5589 ;;
  5590                           
  5591                           
  5592                           ;psect for function i1_setDots
  5593  0125                     i1_setDots:	
  5594                           
  5595                           ;incstack = 0
  5596                           ; Regs used in i1_setDots: [wreg+status,2+status,0]
  5597                           ;i1setDots@newData stored from wreg
  5598  0125  00F8               	movwf	i1setDots@newData
  5599  0126                     i1l1547:	
  5600                           
  5601                           ;main.c: 59:     if (newData == previousData) return;
  5602  0126  0878               	movf	i1setDots@newData,w
  5603  0127  0672               	xorwf	_previousData,w
  5604  0128  1D03               	skipz
  5605  0129  292B               	goto	u56_21
  5606  012A  292C               	goto	u56_20
  5607  012B                     u56_21:	
  5608  012B  292D               	goto	i1l1551
  5609  012C                     u56_20:	
  5610  012C  29EE               	goto	i1l482
  5611  012D                     i1l1551:	
  5612                           
  5613                           ;main.c: 61:     previousState = 0x00;
  5614  012D  01F1               	clrf	_previousState
  5615                           
  5616                           ;main.c: 62:     nextState = 0x00;
  5617  012E  01F0               	clrf	_nextState
  5618  012F                     i1l1553:	
  5619                           
  5620                           ;main.c: 64:     previousState ^= (previousData & 0b01000000) >> 6;
  5621  012F  0872               	movf	_previousData,w
  5622  0130  00F6               	movwf	??i1_setDots
  5623  0131  3006               	movlw	6
  5624  0132                     u57_25:	
  5625  0132  36F6               	lsrf	??i1_setDots,f
  5626  0133  0B89               	decfsz	9,f
  5627  0134  2932               	goto	u57_25
  5628  0135  0876               	movf	??i1_setDots,w
  5629  0136  3901               	andlw	1
  5630  0137  00F7               	movwf	??i1_setDots+1
  5631  0138  0877               	movf	??i1_setDots+1,w
  5632  0139  06F1               	xorwf	_previousState,f
  5633  013A                     i1l1555:	
  5634                           
  5635                           ;main.c: 65:     previousState ^= (previousData & 0b00100000) >> 4;
  5636  013A  0872               	movf	_previousData,w
  5637  013B  00F6               	movwf	??i1_setDots
  5638  013C  3004               	movlw	4
  5639  013D                     u58_25:	
  5640  013D  36F6               	lsrf	??i1_setDots,f
  5641  013E  0B89               	decfsz	9,f
  5642  013F  293D               	goto	u58_25
  5643  0140  0876               	movf	??i1_setDots,w
  5644  0141  3902               	andlw	2
  5645  0142  00F7               	movwf	??i1_setDots+1
  5646  0143  0877               	movf	??i1_setDots+1,w
  5647  0144  06F1               	xorwf	_previousState,f
  5648  0145                     i1l1557:	
  5649                           
  5650                           ;main.c: 66:     previousState ^= (previousData & 0b00010000) >> 2;
  5651  0145  0872               	movf	_previousData,w
  5652  0146  00F6               	movwf	??i1_setDots
  5653  0147  3002               	movlw	2
  5654  0148                     u59_25:	
  5655  0148  36F6               	lsrf	??i1_setDots,f
  5656  0149  0B89               	decfsz	9,f
  5657  014A  2948               	goto	u59_25
  5658  014B  0876               	movf	??i1_setDots,w
  5659  014C  3904               	andlw	4
  5660  014D  00F7               	movwf	??i1_setDots+1
  5661  014E  0877               	movf	??i1_setDots+1,w
  5662  014F  06F1               	xorwf	_previousState,f
  5663  0150                     i1l1559:	
  5664                           
  5665                           ;main.c: 67:     previousState ^= (previousData & 0b00001000);
  5666  0150  0872               	movf	_previousData,w
  5667  0151  3908               	andlw	8
  5668  0152  00F6               	movwf	??i1_setDots
  5669  0153  0876               	movf	??i1_setDots,w
  5670  0154  06F1               	xorwf	_previousState,f
  5671  0155                     i1l1561:	
  5672                           
  5673                           ;main.c: 68:     previousState ^= (previousData & 0b00000100) << 2;
  5674  0155  0872               	movf	_previousData,w
  5675  0156  3904               	andlw	4
  5676  0157  00F6               	movwf	??i1_setDots
  5677  0158  3001               	movlw	1
  5678  0159                     u60_25:	
  5679  0159  35F6               	lslf	??i1_setDots,f
  5680  015A  3EFF               	addlw	-1
  5681  015B  1D03               	skipz
  5682  015C  2959               	goto	u60_25
  5683  015D  3576               	lslf	??i1_setDots,w
  5684  015E  00F7               	movwf	??i1_setDots+1
  5685  015F  0877               	movf	??i1_setDots+1,w
  5686  0160  06F1               	xorwf	_previousState,f
  5687  0161                     i1l1563:	
  5688                           
  5689                           ;main.c: 69:     previousState ^= (previousData & 0b00000010) << 4;
  5690  0161  0872               	movf	_previousData,w
  5691  0162  3902               	andlw	2
  5692  0163  00F6               	movwf	??i1_setDots
  5693  0164  3003               	movlw	3
  5694  0165                     u61_25:	
  5695  0165  35F6               	lslf	??i1_setDots,f
  5696  0166  3EFF               	addlw	-1
  5697  0167  1D03               	skipz
  5698  0168  2965               	goto	u61_25
  5699  0169  3576               	lslf	??i1_setDots,w
  5700  016A  00F7               	movwf	??i1_setDots+1
  5701  016B  0877               	movf	??i1_setDots+1,w
  5702  016C  06F1               	xorwf	_previousState,f
  5703  016D                     i1l1565:	
  5704                           
  5705                           ;main.c: 70:     previousState ^= (previousData & 0b00000001) << 6;
  5706  016D  0872               	movf	_previousData,w
  5707  016E  3901               	andlw	1
  5708  016F  00F6               	movwf	??i1_setDots
  5709  0170  3005               	movlw	5
  5710  0171                     u62_25:	
  5711  0171  35F6               	lslf	??i1_setDots,f
  5712  0172  3EFF               	addlw	-1
  5713  0173  1D03               	skipz
  5714  0174  2971               	goto	u62_25
  5715  0175  3576               	lslf	??i1_setDots,w
  5716  0176  00F7               	movwf	??i1_setDots+1
  5717  0177  0877               	movf	??i1_setDots+1,w
  5718  0178  06F1               	xorwf	_previousState,f
  5719  0179                     i1l1567:	
  5720                           
  5721                           ;main.c: 72:     nextState ^= (newData & 0b01000000) >> 6;
  5722  0179  0878               	movf	i1setDots@newData,w
  5723  017A  00F6               	movwf	??i1_setDots
  5724  017B  3006               	movlw	6
  5725  017C                     u63_25:	
  5726  017C  36F6               	lsrf	??i1_setDots,f
  5727  017D  0B89               	decfsz	9,f
  5728  017E  297C               	goto	u63_25
  5729  017F  0876               	movf	??i1_setDots,w
  5730  0180  3901               	andlw	1
  5731  0181  00F7               	movwf	??i1_setDots+1
  5732  0182  0877               	movf	??i1_setDots+1,w
  5733  0183  06F0               	xorwf	_nextState,f
  5734  0184                     i1l1569:	
  5735                           
  5736                           ;main.c: 73:     nextState ^= (newData & 0b00100000) >> 4;
  5737  0184  0878               	movf	i1setDots@newData,w
  5738  0185  00F6               	movwf	??i1_setDots
  5739  0186  3004               	movlw	4
  5740  0187                     u64_25:	
  5741  0187  36F6               	lsrf	??i1_setDots,f
  5742  0188  0B89               	decfsz	9,f
  5743  0189  2987               	goto	u64_25
  5744  018A  0876               	movf	??i1_setDots,w
  5745  018B  3902               	andlw	2
  5746  018C  00F7               	movwf	??i1_setDots+1
  5747  018D  0877               	movf	??i1_setDots+1,w
  5748  018E  06F0               	xorwf	_nextState,f
  5749  018F                     i1l1571:	
  5750                           
  5751                           ;main.c: 74:     nextState ^= (newData & 0b00010000) >> 2;
  5752  018F  0878               	movf	i1setDots@newData,w
  5753  0190  00F6               	movwf	??i1_setDots
  5754  0191  3002               	movlw	2
  5755  0192                     u65_25:	
  5756  0192  36F6               	lsrf	??i1_setDots,f
  5757  0193  0B89               	decfsz	9,f
  5758  0194  2992               	goto	u65_25
  5759  0195  0876               	movf	??i1_setDots,w
  5760  0196  3904               	andlw	4
  5761  0197  00F7               	movwf	??i1_setDots+1
  5762  0198  0877               	movf	??i1_setDots+1,w
  5763  0199  06F0               	xorwf	_nextState,f
  5764  019A                     i1l1573:	
  5765                           
  5766                           ;main.c: 75:     nextState ^= (newData & 0b00001000);
  5767  019A  0878               	movf	i1setDots@newData,w
  5768  019B  3908               	andlw	8
  5769  019C  00F6               	movwf	??i1_setDots
  5770  019D  0876               	movf	??i1_setDots,w
  5771  019E  06F0               	xorwf	_nextState,f
  5772  019F                     i1l1575:	
  5773                           
  5774                           ;main.c: 76:     nextState ^= (newData & 0b00000100) << 2;
  5775  019F  0878               	movf	i1setDots@newData,w
  5776  01A0  3904               	andlw	4
  5777  01A1  00F6               	movwf	??i1_setDots
  5778  01A2  3001               	movlw	1
  5779  01A3                     u66_25:	
  5780  01A3  35F6               	lslf	??i1_setDots,f
  5781  01A4  3EFF               	addlw	-1
  5782  01A5  1D03               	skipz
  5783  01A6  29A3               	goto	u66_25
  5784  01A7  3576               	lslf	??i1_setDots,w
  5785  01A8  00F7               	movwf	??i1_setDots+1
  5786  01A9  0877               	movf	??i1_setDots+1,w
  5787  01AA  06F0               	xorwf	_nextState,f
  5788  01AB                     i1l1577:	
  5789                           
  5790                           ;main.c: 77:     nextState ^= (newData & 0b00000010) << 4;
  5791  01AB  0878               	movf	i1setDots@newData,w
  5792  01AC  3902               	andlw	2
  5793  01AD  00F6               	movwf	??i1_setDots
  5794  01AE  3003               	movlw	3
  5795  01AF                     u67_25:	
  5796  01AF  35F6               	lslf	??i1_setDots,f
  5797  01B0  3EFF               	addlw	-1
  5798  01B1  1D03               	skipz
  5799  01B2  29AF               	goto	u67_25
  5800  01B3  3576               	lslf	??i1_setDots,w
  5801  01B4  00F7               	movwf	??i1_setDots+1
  5802  01B5  0877               	movf	??i1_setDots+1,w
  5803  01B6  06F0               	xorwf	_nextState,f
  5804  01B7                     i1l1579:	
  5805                           
  5806                           ;main.c: 78:     nextState ^= (newData & 0b00000001) << 6;
  5807  01B7  0878               	movf	i1setDots@newData,w
  5808  01B8  3901               	andlw	1
  5809  01B9  00F6               	movwf	??i1_setDots
  5810  01BA  3005               	movlw	5
  5811  01BB                     u68_25:	
  5812  01BB  35F6               	lslf	??i1_setDots,f
  5813  01BC  3EFF               	addlw	-1
  5814  01BD  1D03               	skipz
  5815  01BE  29BB               	goto	u68_25
  5816  01BF  3576               	lslf	??i1_setDots,w
  5817  01C0  00F7               	movwf	??i1_setDots+1
  5818  01C1  0877               	movf	??i1_setDots+1,w
  5819  01C2  06F0               	xorwf	_nextState,f
  5820  01C3                     i1l1581:	
  5821                           
  5822                           ;main.c: 80:     PORTB = previousState;
  5823  01C3  0871               	movf	_previousState,w
  5824  01C4  0140               	movlb	0	; select bank0
  5825  01C5  008D               	movwf	13	;volatile
  5826                           
  5827                           ;main.c: 81:     PORTA = ~previousState;
  5828  01C6  0971               	comf	_previousState,w
  5829  01C7  008C               	movwf	12	;volatile
  5830  01C8                     i1l1583:	
  5831                           
  5832                           ;main.c: 82:     _delay((unsigned long)((1)*(32000000/4000.0)));
  5833  01C8  300B               	movlw	11
  5834  01C9  00F6               	movwf	??i1_setDots
  5835  01CA  3062               	movlw	98
  5836  01CB                     u109_27:	
  5837  01CB  0B89               	decfsz	9,f
  5838  01CC  29CB               	goto	u109_27
  5839  01CD  0BF6               	decfsz	??i1_setDots,f
  5840  01CE  29CB               	goto	u109_27
  5841  01CF  3200               	nop2
  5842                           
  5843                           ;main.c: 83:     PORTB = 0x00;
  5844  01D0  0140               	movlb	0	; select bank0
  5845  01D1  018D               	clrf	13	;volatile
  5846                           
  5847                           ;main.c: 84:     PORTA = 0x00;
  5848  01D2  018C               	clrf	12	;volatile
  5849  01D3                     i1l1585:	
  5850                           
  5851                           ;main.c: 86:     _delay((unsigned long)((5)*(32000000/4000.0)));
  5852  01D3  3034               	movlw	52
  5853  01D4  00F6               	movwf	??i1_setDots
  5854  01D5  30F2               	movlw	242
  5855  01D6                     u110_27:	
  5856  01D6  0B89               	decfsz	9,f
  5857  01D7  29D6               	goto	u110_27
  5858  01D8  0BF6               	decfsz	??i1_setDots,f
  5859  01D9  29D6               	goto	u110_27
  5860  01DA                     i1l1587:	
  5861                           
  5862                           ;main.c: 87:     previousData = newData;
  5863  01DA  0878               	movf	i1setDots@newData,w
  5864  01DB  00F6               	movwf	??i1_setDots
  5865  01DC  0876               	movf	??i1_setDots,w
  5866  01DD  00F2               	movwf	_previousData
  5867  01DE                     i1l1589:	
  5868                           
  5869                           ;main.c: 89:     PORTB = nextState;
  5870  01DE  0870               	movf	_nextState,w
  5871  01DF  0140               	movlb	0	; select bank0
  5872  01E0  008D               	movwf	13	;volatile
  5873                           
  5874                           ;main.c: 90:     PORTA = ~nextState;
  5875  01E1  0970               	comf	_nextState,w
  5876  01E2  008C               	movwf	12	;volatile
  5877  01E3                     i1l1591:	
  5878                           
  5879                           ;main.c: 91:     _delay((unsigned long)((1)*(32000000/4000.0)));
  5880  01E3  300B               	movlw	11
  5881  01E4  00F6               	movwf	??i1_setDots
  5882  01E5  3062               	movlw	98
  5883  01E6                     u111_27:	
  5884  01E6  0B89               	decfsz	9,f
  5885  01E7  29E6               	goto	u111_27
  5886  01E8  0BF6               	decfsz	??i1_setDots,f
  5887  01E9  29E6               	goto	u111_27
  5888  01EA  3200               	nop2
  5889                           
  5890                           ;main.c: 92:     PORTB = 0x00;
  5891  01EB  0140               	movlb	0	; select bank0
  5892  01EC  018D               	clrf	13	;volatile
  5893                           
  5894                           ;main.c: 93:     PORTA = 0x00;
  5895  01ED  018C               	clrf	12	;volatile
  5896  01EE                     i1l482:	
  5897  01EE  0008               	return
  5898  01EF                     __end_ofi1_setDots:	
  5899                           
  5900                           	psect	text24
  5901  0436                     __ptext24:	
  5902 ;; *************** function _EUSART1_DefaultOverrunErrorHandler *****************
  5903 ;; Defined at:
  5904 ;;		line 209 in file "mcc_generated_files/eusart1.c"
  5905 ;; Parameters:    Size  Location     Type
  5906 ;;		None
  5907 ;; Auto vars:     Size  Location     Type
  5908 ;;		None
  5909 ;; Return value:  Size  Location     Type
  5910 ;;                  1    wreg      void 
  5911 ;; Registers used:
  5912 ;;		None
  5913 ;; Tracked objects:
  5914 ;;		On entry : 0/0
  5915 ;;		On exit  : 0/0
  5916 ;;		Unchanged: 0/0
  5917 ;; Data sizes:     COMMON   BANK0   BANK1   BANK2   BANK3   BANK4   BANK5   BANK6   BANK7   BANK8   BANK9  BANK10  BANK1
      +1  BANK12
  5918 ;;      Params:         0       0       0       0       0       0       0       0       0       0       0       0       
      +0       0
  5919 ;;      Locals:         0       0       0       0       0       0       0       0       0       0       0       0       
      +0       0
  5920 ;;      Temps:          0       0       0       0       0       0       0       0       0       0       0       0       
      +0       0
  5921 ;;      Totals:         0       0       0       0       0       0       0       0       0       0       0       0       
      +0       0
  5922 ;;Total ram usage:        0 bytes
  5923 ;; Hardware stack levels used:    1
  5924 ;; This function calls:
  5925 ;;		Nothing
  5926 ;; This function is called by:
  5927 ;;		_EUSART1_Initialize
  5928 ;;		_EUSART1_Receive_ISR
  5929 ;; This function uses a non-reentrant model
  5930 ;;
  5931                           
  5932                           
  5933                           ;psect for function _EUSART1_DefaultOverrunErrorHandler
  5934  0436                     _EUSART1_DefaultOverrunErrorHandler:	
  5935  0436                     i1l1657:	
  5936                           ;incstack = 0
  5937                           ; Regs used in _EUSART1_DefaultOverrunErrorHandler: []
  5938                           
  5939                           
  5940                           ;mcc_generated_files/eusart1.c: 212:     RC1STAbits.CREN = 0;
  5941  0436  0142               	movlb	2	; select bank2
  5942  0437  121D               	bcf	29,4	;volatile
  5943                           
  5944                           ;mcc_generated_files/eusart1.c: 213:     RC1STAbits.CREN = 1;
  5945  0438  161D               	bsf	29,4	;volatile
  5946  0439                     i1l389:	
  5947  0439  0008               	return
  5948  043A                     __end_of_EUSART1_DefaultOverrunErrorHandler:	
  5949                           
  5950                           	psect	text25
  5951  0442                     __ptext25:	
  5952 ;; *************** function _EUSART1_DefaultFramingErrorHandler *****************
  5953 ;; Defined at:
  5954 ;;		line 207 in file "mcc_generated_files/eusart1.c"
  5955 ;; Parameters:    Size  Location     Type
  5956 ;;		None
  5957 ;; Auto vars:     Size  Location     Type
  5958 ;;		None
  5959 ;; Return value:  Size  Location     Type
  5960 ;;                  1    wreg      void 
  5961 ;; Registers used:
  5962 ;;		None
  5963 ;; Tracked objects:
  5964 ;;		On entry : 0/0
  5965 ;;		On exit  : 0/0
  5966 ;;		Unchanged: 0/0
  5967 ;; Data sizes:     COMMON   BANK0   BANK1   BANK2   BANK3   BANK4   BANK5   BANK6   BANK7   BANK8   BANK9  BANK10  BANK1
      +1  BANK12
  5968 ;;      Params:         0       0       0       0       0       0       0       0       0       0       0       0       
      +0       0
  5969 ;;      Locals:         0       0       0       0       0       0       0       0       0       0       0       0       
      +0       0
  5970 ;;      Temps:          0       0       0       0       0       0       0       0       0       0       0       0       
      +0       0
  5971 ;;      Totals:         0       0       0       0       0       0       0       0       0       0       0       0       
      +0       0
  5972 ;;Total ram usage:        0 bytes
  5973 ;; Hardware stack levels used:    1
  5974 ;; This function calls:
  5975 ;;		Nothing
  5976 ;; This function is called by:
  5977 ;;		_EUSART1_Initialize
  5978 ;;		_EUSART1_Receive_ISR
  5979 ;; This function uses a non-reentrant model
  5980 ;;
  5981                           
  5982                           
  5983                           ;psect for function _EUSART1_DefaultFramingErrorHandler
  5984  0442                     _EUSART1_DefaultFramingErrorHandler:	
  5985  0442                     i1l386:	
  5986                           ;incstack = 0
  5987                           ; Regs used in _EUSART1_DefaultFramingErrorHandler: []
  5988                           
  5989  0442  0008               	return
  5990  0443                     __end_of_EUSART1_DefaultFramingErrorHandler:	
  5991                           
  5992                           	psect	text26
  5993  043A                     __ptext26:	
  5994 ;; *************** function _EUSART1_DefaultErrorHandler *****************
  5995 ;; Defined at:
  5996 ;;		line 217 in file "mcc_generated_files/eusart1.c"
  5997 ;; Parameters:    Size  Location     Type
  5998 ;;		None
  5999 ;; Auto vars:     Size  Location     Type
  6000 ;;		None
  6001 ;; Return value:  Size  Location     Type
  6002 ;;                  1    wreg      void 
  6003 ;; Registers used:
  6004 ;;		wreg, fsr1l, fsr1h, status,2, status,0, pclath, cstack
  6005 ;; Tracked objects:
  6006 ;;		On entry : 0/0
  6007 ;;		On exit  : 0/0
  6008 ;;		Unchanged: 0/0
  6009 ;; Data sizes:     COMMON   BANK0   BANK1   BANK2   BANK3   BANK4   BANK5   BANK6   BANK7   BANK8   BANK9  BANK10  BANK1
      +1  BANK12
  6010 ;;      Params:         0       0       0       0       0       0       0       0       0       0       0       0       
      +0       0
  6011 ;;      Locals:         0       0       0       0       0       0       0       0       0       0       0       0       
      +0       0
  6012 ;;      Temps:          0       0       0       0       0       0       0       0       0       0       0       0       
      +0       0
  6013 ;;      Totals:         0       0       0       0       0       0       0       0       0       0       0       0       
      +0       0
  6014 ;;Total ram usage:        0 bytes
  6015 ;; Hardware stack levels used:    1
  6016 ;; Hardware stack levels required when called:    1
  6017 ;; This function calls:
  6018 ;;		_EUSART1_RxDataHandler
  6019 ;; This function is called by:
  6020 ;;		_EUSART1_Initialize
  6021 ;;		_EUSART1_Receive_ISR
  6022 ;; This function uses a non-reentrant model
  6023 ;;
  6024                           
  6025                           
  6026                           ;psect for function _EUSART1_DefaultErrorHandler
  6027  043A                     _EUSART1_DefaultErrorHandler:	
  6028  043A                     i1l1659:	
  6029                           ;incstack = 0
  6030                           ; Regs used in _EUSART1_DefaultErrorHandler: [wreg+fsr1l+fsr1h+status,2+status,0+pclath+
      +                          cstack]
  6031                           
  6032                           
  6033                           ;mcc_generated_files/eusart1.c: 218:     EUSART1_RxDataHandler();
  6034  043A  3183  2354  3184   	fcall	_EUSART1_RxDataHandler
  6035  043D                     i1l392:	
  6036  043D  0008               	return
  6037  043E                     __end_of_EUSART1_DefaultErrorHandler:	
  6038                           
  6039                           	psect	text27
  6040  0354                     __ptext27:	
  6041 ;; *************** function _EUSART1_RxDataHandler *****************
  6042 ;; Defined at:
  6043 ;;		line 197 in file "mcc_generated_files/eusart1.c"
  6044 ;; Parameters:    Size  Location     Type
  6045 ;;		None
  6046 ;; Auto vars:     Size  Location     Type
  6047 ;;		None
  6048 ;; Return value:  Size  Location     Type
  6049 ;;                  1    wreg      void 
  6050 ;; Registers used:
  6051 ;;		wreg, fsr1l, fsr1h, status,2, status,0
  6052 ;; Tracked objects:
  6053 ;;		On entry : 0/0
  6054 ;;		On exit  : 0/0
  6055 ;;		Unchanged: 0/0
  6056 ;; Data sizes:     COMMON   BANK0   BANK1   BANK2   BANK3   BANK4   BANK5   BANK6   BANK7   BANK8   BANK9  BANK10  BANK1
      +1  BANK12
  6057 ;;      Params:         0       0       0       0       0       0       0       0       0       0       0       0       
      +0       0
  6058 ;;      Locals:         0       0       0       0       0       0       0       0       0       0       0       0       
      +0       0
  6059 ;;      Temps:          1       0       0       0       0       0       0       0       0       0       0       0       
      +0       0
  6060 ;;      Totals:         1       0       0       0       0       0       0       0       0       0       0       0       
      +0       0
  6061 ;;Total ram usage:        1 bytes
  6062 ;; Hardware stack levels used:    1
  6063 ;; This function calls:
  6064 ;;		Nothing
  6065 ;; This function is called by:
  6066 ;;		_EUSART1_Receive_ISR
  6067 ;;		_EUSART1_DefaultErrorHandler
  6068 ;; This function uses a non-reentrant model
  6069 ;;
  6070                           
  6071                           
  6072                           ;psect for function _EUSART1_RxDataHandler
  6073  0354                     _EUSART1_RxDataHandler:	
  6074  0354                     i1l1529:	
  6075                           ;incstack = 0
  6076                           ; Regs used in _EUSART1_RxDataHandler: [wreg+fsr1l+fsr1h+status,2+status,0]
  6077                           
  6078                           
  6079                           ;mcc_generated_files/eusart1.c: 199:     eusart1RxBuffer[eusart1RxHead++] = RC1REG;
  6080  0354  0142               	movlb	2	; select bank2
  6081  0355  0819               	movf	25,w	;volatile
  6082  0356  00F6               	movwf	??_EUSART1_RxDataHandler
  6083  0357  0875               	movf	_eusart1RxHead,w
  6084  0358  3E28               	addlw	(low (_eusart1RxBuffer| 0))& (0+255)
  6085  0359  0086               	movwf	6
  6086  035A  0187               	clrf	7
  6087  035B  0876               	movf	??_EUSART1_RxDataHandler,w
  6088  035C  0081               	movwf	1
  6089  035D                     i1l1531:	
  6090  035D  3001               	movlw	1
  6091  035E  00F6               	movwf	??_EUSART1_RxDataHandler
  6092  035F  0876               	movf	??_EUSART1_RxDataHandler,w
  6093  0360  07F5               	addwf	_eusart1RxHead,f	;volatile
  6094  0361                     i1l1533:	
  6095                           
  6096                           ;mcc_generated_files/eusart1.c: 200:     if(sizeof(eusart1RxBuffer) <= eusart1RxHead)
  6097  0361  3008               	movlw	8
  6098  0362  0275               	subwf	_eusart1RxHead,w	;volatile
  6099  0363  1C03               	skipc
  6100  0364  2B66               	goto	u55_21
  6101  0365  2B67               	goto	u55_20
  6102  0366                     u55_21:	
  6103  0366  2B68               	goto	i1l1537
  6104  0367                     u55_20:	
  6105  0367                     i1l1535:	
  6106                           
  6107                           ;mcc_generated_files/eusart1.c: 201:     {;mcc_generated_files/eusart1.c: 202:         e
      +                          usart1RxHead = 0;
  6108  0367  01F5               	clrf	_eusart1RxHead	;volatile
  6109  0368                     i1l1537:	
  6110                           
  6111                           ;mcc_generated_files/eusart1.c: 204:     eusart1RxCount++;
  6112  0368  3001               	movlw	1
  6113  0369  00F6               	movwf	??_EUSART1_RxDataHandler
  6114  036A  0876               	movf	??_EUSART1_RxDataHandler,w
  6115  036B  07F3               	addwf	_eusart1RxCount,f	;volatile
  6116  036C                     i1l383:	
  6117  036C  0008               	return
  6118  036D                     __end_of_EUSART1_RxDataHandler:	
  6119                           
  6120                           	psect	text28
  6121  03E9                     __ptext28:	
  6122 ;; *************** function _spi1InterruptHandler *****************
  6123 ;; Defined at:
  6124 ;;		line 97 in file "main.c"
  6125 ;; Parameters:    Size  Location     Type
  6126 ;;		None
  6127 ;; Auto vars:     Size  Location     Type
  6128 ;;		None
  6129 ;; Return value:  Size  Location     Type
  6130 ;;                  1    wreg      void 
  6131 ;; Registers used:
  6132 ;;		wreg, status,2
  6133 ;; Tracked objects:
  6134 ;;		On entry : 0/0
  6135 ;;		On exit  : 0/0
  6136 ;;		Unchanged: 0/0
  6137 ;; Data sizes:     COMMON   BANK0   BANK1   BANK2   BANK3   BANK4   BANK5   BANK6   BANK7   BANK8   BANK9  BANK10  BANK1
      +1  BANK12
  6138 ;;      Params:         0       0       0       0       0       0       0       0       0       0       0       0       
      +0       0
  6139 ;;      Locals:         0       0       0       0       0       0       0       0       0       0       0       0       
      +0       0
  6140 ;;      Temps:          1       0       0       0       0       0       0       0       0       0       0       0       
      +0       0
  6141 ;;      Totals:         1       0       0       0       0       0       0       0       0       0       0       0       
      +0       0
  6142 ;;Total ram usage:        1 bytes
  6143 ;; Hardware stack levels used:    1
  6144 ;; This function calls:
  6145 ;;		Nothing
  6146 ;; This function is called by:
  6147 ;;		_main
  6148 ;;		_SPI1_Isr
  6149 ;;		_INTERRUPT_InterruptManager
  6150 ;; This function uses a non-reentrant model
  6151 ;;
  6152                           
  6153                           
  6154                           ;psect for function _spi1InterruptHandler
  6155  03E9                     _spi1InterruptHandler:	
  6156  03E9                     i1l1539:	
  6157                           ;incstack = 0
  6158                           ; Regs used in _spi1InterruptHandler: [wreg+status,2]
  6159                           
  6160                           
  6161                           ;main.c: 98:     idleStart = 0;
  6162  03E9  0140               	movlb	0	; select bank0
  6163  03EA  01C3               	clrf	_idleStart
  6164  03EB                     i1l1541:	
  6165                           
  6166                           ;main.c: 99:     lastData = SSP1BUF;
  6167  03EB  0143               	movlb	3	; select bank3
  6168  03EC  080C               	movf	12,w	;volatile
  6169  03ED  00F6               	movwf	??_spi1InterruptHandler
  6170  03EE  0876               	movf	??_spi1InterruptHandler,w
  6171  03EF  0140               	movlb	0	; select bank0
  6172  03F0  00BA               	movwf	_lastData
  6173  03F1                     i1l1543:	
  6174                           
  6175                           ;main.c: 100:     TMR0L = 0x00;
  6176  03F1  014B               	movlb	11	; select bank11
  6177  03F2  019C               	clrf	28	;volatile
  6178  03F3                     i1l1545:	
  6179                           
  6180                           ;main.c: 101:     PIR3bits.SSP1IF = 0;
  6181  03F3  014E               	movlb	14	; select bank14
  6182  03F4  100F               	bcf	15,0	;volatile
  6183  03F5                     i1l485:	
  6184  03F5  0008               	return
  6185  03F6                     __end_of_spi1InterruptHandler:	
  6186                           
  6187                           	psect	text29
  6188  0398                     __ptext29:	
  6189 ;; *************** function _SPI1_Isr *****************
  6190 ;; Defined at:
  6191 ;;		line 148 in file "mcc_generated_files/spi1.c"
  6192 ;; Parameters:    Size  Location     Type
  6193 ;;		None
  6194 ;; Auto vars:     Size  Location     Type
  6195 ;;		None
  6196 ;; Return value:  Size  Location     Type
  6197 ;;                  1    wreg      void 
  6198 ;; Registers used:
  6199 ;;		wreg, status,2, status,0, pclath, cstack
  6200 ;; Tracked objects:
  6201 ;;		On entry : 0/0
  6202 ;;		On exit  : 0/0
  6203 ;;		Unchanged: 0/0
  6204 ;; Data sizes:     COMMON   BANK0   BANK1   BANK2   BANK3   BANK4   BANK5   BANK6   BANK7   BANK8   BANK9  BANK10  BANK1
      +1  BANK12
  6205 ;;      Params:         0       0       0       0       0       0       0       0       0       0       0       0       
      +0       0
  6206 ;;      Locals:         0       0       0       0       0       0       0       0       0       0       0       0       
      +0       0
  6207 ;;      Temps:          0       0       0       0       0       0       0       0       0       0       0       0       
      +0       0
  6208 ;;      Totals:         0       0       0       0       0       0       0       0       0       0       0       0       
      +0       0
  6209 ;;Total ram usage:        0 bytes
  6210 ;; Hardware stack levels used:    1
  6211 ;; Hardware stack levels required when called:    1
  6212 ;; This function calls:
  6213 ;;		Absolute function
  6214 ;;		_SPI1_Isr
  6215 ;;		_spi1InterruptHandler
  6216 ;; This function is called by:
  6217 ;;		_SPI1_Initialize
  6218 ;;		_INTERRUPT_InterruptManager
  6219 ;; This function uses a non-reentrant model
  6220 ;;
  6221                           
  6222                           
  6223                           ;psect for function _SPI1_Isr
  6224  0398                     _SPI1_Isr:	
  6225  0398                     i1l1645:	
  6226                           ;incstack = 0
  6227                           ; Regs used in _SPI1_Isr: [wreg+status,2+status,0+pclath+cstack]
  6228                           
  6229                           
  6230                           ;mcc_generated_files/spi1.c: 150:     if(PIR3bits.SSP1IF == 1){
  6231  0398  014E               	movlb	14	; select bank14
  6232  0399  1C0F               	btfss	15,0	;volatile
  6233  039A  2B9C               	goto	u69_21
  6234  039B  2B9D               	goto	u69_20
  6235  039C                     u69_21:	
  6236  039C  2BAB               	goto	i1l202
  6237  039D                     u69_20:	
  6238  039D                     i1l1647:	
  6239                           
  6240                           ;mcc_generated_files/spi1.c: 151:         if(MSSP1_InterruptHandler){
  6241  039D  0140               	movlb	0	; select bank0
  6242  039E  0844               	movf	_MSSP1_InterruptHandler,w
  6243  039F  0445               	iorwf	_MSSP1_InterruptHandler+1,w
  6244  03A0  1903               	btfsc	3,2
  6245  03A1  2BA3               	goto	u70_21
  6246  03A2  2BA4               	goto	u70_20
  6247  03A3                     u70_21:	
  6248  03A3  2BA9               	goto	i1l1651
  6249  03A4                     u70_20:	
  6250  03A4                     i1l1649:	
  6251                           
  6252                           ;mcc_generated_files/spi1.c: 152:             MSSP1_InterruptHandler();
  6253  03A4  0845               	movf	_MSSP1_InterruptHandler+1,w
  6254  03A5  008A               	movwf	10
  6255  03A6  0844               	movf	_MSSP1_InterruptHandler,w
  6256  03A7  000A               	callw
  6257  03A8  3183               	pagesel	$
  6258  03A9                     i1l1651:	
  6259                           
  6260                           ;mcc_generated_files/spi1.c: 154:         PIR3bits.SSP1IF= 0;
  6261  03A9  014E               	movlb	14	; select bank14
  6262  03AA  100F               	bcf	15,0	;volatile
  6263  03AB                     i1l202:	
  6264  03AB  0008               	return
  6265  03AC                     __end_of_SPI1_Isr:	
  6266  007E                     btemp	set	126	;btemp
  6267  007E                     int$flags	set	126
  6268  007E                     wtemp0	set	126


Data Sizes:
    Strings     0
    Constant    4
    Data        3
    BSS         34
    Persistent  34
    Stack       0

Auto Spaces:
    Space          Size  Autos    Used
    COMMON           14      5      11
    BANK0            80      5      38
    BANK1            80      0       0
    BANK2            80      0       0
    BANK3            80      0       0
    BANK4            80      0       0
    BANK5            80      0       0
    BANK6            80      0       0
    BANK7            80      0       0
    BANK8            80      0       0
    BANK9            80      0       0
    BANK10           80      0       0
    BANK11           80      0       0
    BANK12           48      0       0

Pointer List with Targets:

    EUSART1_SetRxInterruptHandler@interruptHandler	PTR FTN()void  size(2) Largest target is 1
		 -> eusart1RxDataHandler(), EUSART1_Receive_ISR(), 

    EUSART1_SetErrorHandler@interruptHandler	PTR FTN()void  size(2) Largest target is 1
		 -> EUSART1_DefaultErrorHandler(), 

    EUSART1_SetOverrunErrorHandler@interruptHandler	PTR FTN()void  size(2) Largest target is 1
		 -> EUSART1_DefaultOverrunErrorHandler(), 

    EUSART1_SetFramingErrorHandler@interruptHandler	PTR FTN()void  size(2) Largest target is 1
		 -> EUSART1_DefaultFramingErrorHandler(), 

    EUSART1_ErrorHandler	PTR FTN()void  size(2) Largest target is 1
		 -> EUSART1_DefaultErrorHandler(), Absolute function(), 

    EUSART1_OverrunErrorHandler	PTR FTN()void  size(2) Largest target is 1
		 -> EUSART1_DefaultOverrunErrorHandler(), Absolute function(), 

    EUSART1_FramingErrorHandler	PTR FTN()void  size(2) Largest target is 1
		 -> EUSART1_DefaultFramingErrorHandler(), Absolute function(), 

    TMR0_SetInterruptHandler@InterruptHandler	PTR FTN()void  size(2) Largest target is 1
		 -> tmr0InterruptHandler(), TMR0_DefaultInterruptHandler(), 

    TMR0_InterruptHandler	PTR FTN()void  size(2) Largest target is 1
		 -> tmr0InterruptHandler(), TMR0_DefaultInterruptHandler(), Absolute function(), 

    EUSART1_RxDefaultInterruptHandler	PTR FTN()void  size(2) Largest target is 1
		 -> eusart1RxDataHandler(), EUSART1_Receive_ISR(), Absolute function(), 

    SPI1_SetInterruptHandler@handler	PTR FTN()void  size(2) Largest target is 1
		 -> spi1InterruptHandler(), SPI1_Isr(), 

    MSSP1_InterruptHandler	PTR FTN()void  size(2) Largest target is 1
		 -> spi1InterruptHandler(), Absolute function(), SPI1_Isr(), 


Critical Paths under _main in COMMON

    None.

Critical Paths under _INTERRUPT_InterruptManager in COMMON

    _eusart1RxDataHandler->_EUSART1_Write
    _TMR0_ISR->_tmr0InterruptHandler
    _tmr0InterruptHandler->i1_setDots
    _EUSART1_Receive_ISR->_EUSART1_RxDataHandler
    _EUSART1_DefaultErrorHandler->_EUSART1_RxDataHandler

Critical Paths under _main in BANK0

    _main->_setDots
    _TMR0_Initialize->_TMR0_SetInterruptHandler
    _SPI1_Initialize->_SPI1_SetInterruptHandler
    _EUSART1_Initialize->_EUSART1_SetErrorHandler
    _EUSART1_Initialize->_EUSART1_SetFramingErrorHandler
    _EUSART1_Initialize->_EUSART1_SetOverrunErrorHandler
    _EUSART1_Initialize->_EUSART1_SetRxInterruptHandler

Critical Paths under _INTERRUPT_InterruptManager in BANK0

    None.

Critical Paths under _main in BANK1

    None.

Critical Paths under _INTERRUPT_InterruptManager in BANK1

    None.

Critical Paths under _main in BANK2

    None.

Critical Paths under _INTERRUPT_InterruptManager in BANK2

    None.

Critical Paths under _main in BANK3

    None.

Critical Paths under _INTERRUPT_InterruptManager in BANK3

    None.

Critical Paths under _main in BANK4

    None.

Critical Paths under _INTERRUPT_InterruptManager in BANK4

    None.

Critical Paths under _main in BANK5

    None.

Critical Paths under _INTERRUPT_InterruptManager in BANK5

    None.

Critical Paths under _main in BANK6

    None.

Critical Paths under _INTERRUPT_InterruptManager in BANK6

    None.

Critical Paths under _main in BANK7

    None.

Critical Paths under _INTERRUPT_InterruptManager in BANK7

    None.

Critical Paths under _main in BANK8

    None.

Critical Paths under _INTERRUPT_InterruptManager in BANK8

    None.

Critical Paths under _main in BANK9

    None.

Critical Paths under _INTERRUPT_InterruptManager in BANK9

    None.

Critical Paths under _main in BANK10

    None.

Critical Paths under _INTERRUPT_InterruptManager in BANK10

    None.

Critical Paths under _main in BANK11

    None.

Critical Paths under _INTERRUPT_InterruptManager in BANK11

    None.

Critical Paths under _main in BANK12

    None.

Critical Paths under _INTERRUPT_InterruptManager in BANK12

    None.

Call Graph Tables:

 ---------------------------------------------------------------------------------
 (Depth) Function   	        Calls       Base Space   Used Autos Params    Refs
 ---------------------------------------------------------------------------------
 (0) _main                                                 2     2      0    1827
                                              3 BANK0      2     2      0
      _EUSART1_SetRxInterruptHandler
           _SPI1_SetInterruptHandler
                  _SYSTEM_Initialize
           _TMR0_SetInterruptHandler
                            _setDots
 ---------------------------------------------------------------------------------
 (1) _setDots                                              3     3      0     198
                                              0 BANK0      3     3      0
 ---------------------------------------------------------------------------------
 (1) _SYSTEM_Initialize                                    0     0      0     996
                    _CLC1_Initialize
                 _EUSART1_Initialize
              _OSCILLATOR_Initialize
             _PIN_MANAGER_Initialize
                     _PMD_Initialize
                    _SPI1_Initialize
                    _TMR0_Initialize
 ---------------------------------------------------------------------------------
 (2) _TMR0_Initialize                                      0     0      0     211
           _TMR0_SetInterruptHandler
 ---------------------------------------------------------------------------------
 (1) _TMR0_SetInterruptHandler                             2     0      2     211
                                              0 BANK0      2     0      2
 ---------------------------------------------------------------------------------
 (2) _SPI1_Initialize                                      0     0      0     211
           _SPI1_SetInterruptHandler
 ---------------------------------------------------------------------------------
 (3) _SPI1_SetInterruptHandler                             2     0      2     211
                                              0 BANK0      2     0      2
 ---------------------------------------------------------------------------------
 (2) _PMD_Initialize                                       0     0      0       0
 ---------------------------------------------------------------------------------
 (2) _PIN_MANAGER_Initialize                               0     0      0       0
 ---------------------------------------------------------------------------------
 (2) _OSCILLATOR_Initialize                                0     0      0       0
 ---------------------------------------------------------------------------------
 (2) _EUSART1_Initialize                                   0     0      0     574
            _EUSART1_SetErrorHandler
     _EUSART1_SetFramingErrorHandler
     _EUSART1_SetOverrunErrorHandler
      _EUSART1_SetRxInterruptHandler
 ---------------------------------------------------------------------------------
 (3) _EUSART1_SetRxInterruptHandler                        2     0      2     211
                                              0 BANK0      2     0      2
 ---------------------------------------------------------------------------------
 (3) _EUSART1_SetOverrunErrorHandler                       2     0      2     121
                                              0 BANK0      2     0      2
 ---------------------------------------------------------------------------------
 (3) _EUSART1_SetFramingErrorHandler                       2     0      2     121
                                              0 BANK0      2     0      2
 ---------------------------------------------------------------------------------
 (3) _EUSART1_SetErrorHandler                              2     0      2     121
                                              0 BANK0      2     0      2
 ---------------------------------------------------------------------------------
 (2) _CLC1_Initialize                                      0     0      0       0
 ---------------------------------------------------------------------------------
 Estimated maximum stack depth 3
 ---------------------------------------------------------------------------------
 (Depth) Function   	        Calls       Base Space   Used Autos Params    Refs
 ---------------------------------------------------------------------------------
 (4) _INTERRUPT_InterruptManager                           0     0      0     220
                   Absolute function *
                _EUSART1_Receive_ISR *
                           _SPI1_Isr *
                           _TMR0_ISR
               _eusart1RxDataHandler *
               _spi1InterruptHandler *
 ---------------------------------------------------------------------------------
 (5) _eusart1RxDataHandler                                 1     1      0      22
                                              1 COMMON     1     1      0
                      _EUSART1_Write
 ---------------------------------------------------------------------------------
 (6) _EUSART1_Write                                        1     1      0      22
                                              0 COMMON     1     1      0
 ---------------------------------------------------------------------------------
 (5) _TMR0_ISR                                             0     0      0     198
                   Absolute function *
       _TMR0_DefaultInterruptHandler *
               _tmr0InterruptHandler *
 ---------------------------------------------------------------------------------
 (6) _tmr0InterruptHandler                                 2     2      0     198
                                              3 COMMON     2     2      0
                          i1_setDots
 ---------------------------------------------------------------------------------
 (7) i1_setDots                                            3     3      0     198
                                              0 COMMON     3     3      0
 ---------------------------------------------------------------------------------
 (6) _TMR0_DefaultInterruptHandler                         0     0      0       0
 ---------------------------------------------------------------------------------
 (5) _EUSART1_Receive_ISR                                  0     0      0       0
                   Absolute function *
        _EUSART1_DefaultErrorHandler *
 _EUSART1_DefaultFramingErrorHandler *
 _EUSART1_DefaultOverrunErrorHandler *
              _EUSART1_RxDataHandler
 ---------------------------------------------------------------------------------
 (6) _EUSART1_DefaultOverrunErrorHandler                   0     0      0       0
 ---------------------------------------------------------------------------------
 (6) _EUSART1_DefaultFramingErrorHandler                   0     0      0       0
 ---------------------------------------------------------------------------------
 (6) _EUSART1_DefaultErrorHandler                          0     0      0       0
              _EUSART1_RxDataHandler
 ---------------------------------------------------------------------------------
 (6) _EUSART1_RxDataHandler                                1     1      0       0
                                              0 COMMON     1     1      0
 ---------------------------------------------------------------------------------
 (5) _SPI1_Isr                                             0     0      0       0
                   Absolute function *
                           _SPI1_Isr *
               _spi1InterruptHandler *
 ---------------------------------------------------------------------------------
 (5) _spi1InterruptHandler                                 1     1      0       0
                                              0 COMMON     1     1      0
 ---------------------------------------------------------------------------------
 (5) _SPI1_Isr                                             0     0      0       0
                   Absolute function *
                           _SPI1_Isr *
               _spi1InterruptHandler *
 ---------------------------------------------------------------------------------
 (6) Absolute function(Fake)                               0     0      0       0
 ---------------------------------------------------------------------------------
 Estimated maximum stack depth 7
 ---------------------------------------------------------------------------------

 Call Graph Graphs:

 _main (ROOT)
   _EUSART1_SetRxInterruptHandler
   _SPI1_SetInterruptHandler
   _SYSTEM_Initialize
     _CLC1_Initialize
     _EUSART1_Initialize
       _EUSART1_SetErrorHandler
       _EUSART1_SetFramingErrorHandler
       _EUSART1_SetOverrunErrorHandler
       _EUSART1_SetRxInterruptHandler
     _OSCILLATOR_Initialize
     _PIN_MANAGER_Initialize
     _PMD_Initialize
     _SPI1_Initialize
       _SPI1_SetInterruptHandler
     _TMR0_Initialize
       _TMR0_SetInterruptHandler
   _TMR0_SetInterruptHandler
   _setDots

 _INTERRUPT_InterruptManager (ROOT)
   Absolute function(Fake) *
   _EUSART1_Receive_ISR *
     Absolute function(Fake) *
     _EUSART1_DefaultErrorHandler *
       _EUSART1_RxDataHandler
     _EUSART1_DefaultFramingErrorHandler *
     _EUSART1_DefaultOverrunErrorHandler *
     _EUSART1_RxDataHandler *
   _SPI1_Isr *
     Absolute function(Fake) *
     _spi1InterruptHandler *
   _TMR0_ISR *
     Absolute function(Fake) *
     _TMR0_DefaultInterruptHandler *
     _tmr0InterruptHandler *
       i1_setDots
   _eusart1RxDataHandler *
     _EUSART1_Write
   _spi1InterruptHandler *

 Address spaces:
Name               Size   Autos  Total    Cost      Usage
BIGRAM             3F0      0       0       0        0.0%
NULL                 0      0       0       0        0.0%
CODE                 0      0       0       0        0.0%
BITCOMMON            E      0       0       1        0.0%
BITSFR0              0      0       0       1        0.0%
SFR0                 0      0       0       1        0.0%
COMMON               E      5       B       2       78.6%
BITSFR1              0      0       0       2        0.0%
SFR1                 0      0       0       2        0.0%
BITSFR2              0      0       0       3        0.0%
SFR2                 0      0       0       3        0.0%
STACK                0      0       0       3        0.0%
BITSFR3              0      0       0       4        0.0%
SFR3                 0      0       0       4        0.0%
ABS                  0      0      31       4        0.0%
BITBANK0            50      0       0       5        0.0%
BITSFR4              0      0       0       5        0.0%
SFR4                 0      0       0       5        0.0%
BANK0               50      5      26       6       47.5%
BITSFR5              0      0       0       6        0.0%
SFR5                 0      0       0       6        0.0%
BITBANK1            50      0       0       7        0.0%
BITSFR6              0      0       0       7        0.0%
SFR6                 0      0       0       7        0.0%
BANK1               50      0       0       8        0.0%
BITSFR7              0      0       0       8        0.0%
SFR7                 0      0       0       8        0.0%
BITBANK2            50      0       0       9        0.0%
BITSFR8              0      0       0       9        0.0%
SFR8                 0      0       0       9        0.0%
BANK2               50      0       0      10        0.0%
BITSFR9              0      0       0      10        0.0%
SFR9                 0      0       0      10        0.0%
BITBANK3            50      0       0      11        0.0%
BITSFR10             0      0       0      11        0.0%
SFR10                0      0       0      11        0.0%
BANK3               50      0       0      12        0.0%
BITSFR11             0      0       0      12        0.0%
SFR11                0      0       0      12        0.0%
BITBANK4            50      0       0      13        0.0%
BITSFR12             0      0       0      13        0.0%
SFR12                0      0       0      13        0.0%
BANK4               50      0       0      14        0.0%
BITSFR13             0      0       0      14        0.0%
SFR13                0      0       0      14        0.0%
BITBANK5            50      0       0      15        0.0%
BITSFR14             0      0       0      15        0.0%
SFR14                0      0       0      15        0.0%
BANK5               50      0       0      16        0.0%
BITSFR15             0      0       0      16        0.0%
SFR15                0      0       0      16        0.0%
BITBANK6            50      0       0      17        0.0%
BITSFR16             0      0       0      17        0.0%
SFR16                0      0       0      17        0.0%
BANK6               50      0       0      18        0.0%
BITSFR17             0      0       0      18        0.0%
SFR17                0      0       0      18        0.0%
BITBANK7            50      0       0      19        0.0%
BITSFR18             0      0       0      19        0.0%
SFR18                0      0       0      19        0.0%
BANK7               50      0       0      20        0.0%
BITSFR19             0      0       0      20        0.0%
SFR19                0      0       0      20        0.0%
BITBANK8            50      0       0      21        0.0%
BITSFR20             0      0       0      21        0.0%
SFR20                0      0       0      21        0.0%
BANK8               50      0       0      22        0.0%
BITSFR21             0      0       0      22        0.0%
SFR21                0      0       0      22        0.0%
BITBANK9            50      0       0      23        0.0%
BITSFR22             0      0       0      23        0.0%
SFR22                0      0       0      23        0.0%
BANK9               50      0       0      24        0.0%
BITSFR23             0      0       0      24        0.0%
SFR23                0      0       0      24        0.0%
BITBANK10           50      0       0      25        0.0%
BITSFR24             0      0       0      25        0.0%
SFR24                0      0       0      25        0.0%
BANK10              50      0       0      26        0.0%
BITSFR25             0      0       0      26        0.0%
SFR25                0      0       0      26        0.0%
BITBANK11           50      0       0      27        0.0%
BITSFR26             0      0       0      27        0.0%
SFR26                0      0       0      27        0.0%
BANK11              50      0       0      28        0.0%
BITSFR27             0      0       0      28        0.0%
SFR27                0      0       0      28        0.0%
BITBANK12           30      0       0      29        0.0%
BITSFR28             0      0       0      29        0.0%
SFR28                0      0       0      29        0.0%
BANK12              30      0       0      30        0.0%
BITSFR29             0      0       0      30        0.0%
SFR29                0      0       0      30        0.0%
BITSFR30             0      0       0      31        0.0%
SFR30                0      0       0      31        0.0%
DATA                 0      0      31      31        0.0%
BITSFR31             0      0       0      32        0.0%
SFR31                0      0       0      32        0.0%
BITSFR32             0      0       0      33        0.0%
SFR32                0      0       0      33        0.0%
BITSFR33             0      0       0      34        0.0%
SFR33                0      0       0      34        0.0%
BITSFR34             0      0       0      35        0.0%
SFR34                0      0       0      35        0.0%
BITSFR35             0      0       0      36        0.0%
SFR35                0      0       0      36        0.0%
BITSFR36             0      0       0      37        0.0%
SFR36                0      0       0      37        0.0%
BITSFR37             0      0       0      38        0.0%
SFR37                0      0       0      38        0.0%
BITSFR38             0      0       0      39        0.0%
SFR38                0      0       0      39        0.0%
BITSFR39             0      0       0      40        0.0%
SFR39                0      0       0      40        0.0%
BITSFR40             0      0       0      41        0.0%
SFR40                0      0       0      41        0.0%
BITSFR41             0      0       0      42        0.0%
SFR41                0      0       0      42        0.0%
BITSFR42             0      0       0      43        0.0%
SFR42                0      0       0      43        0.0%
BITSFR43             0      0       0      44        0.0%
SFR43                0      0       0      44        0.0%
BITSFR44             0      0       0      45        0.0%
SFR44                0      0       0      45        0.0%
BITSFR45             0      0       0      46        0.0%
SFR45                0      0       0      46        0.0%
BITSFR46             0      0       0      47        0.0%
SFR46                0      0       0      47        0.0%
BITSFR47             0      0       0      48        0.0%
SFR47                0      0       0      48        0.0%
BITSFR48             0      0       0      49        0.0%
SFR48                0      0       0      49        0.0%
BITSFR49             0      0       0      50        0.0%
SFR49                0      0       0      50        0.0%
BITSFR50             0      0       0      51        0.0%
SFR50                0      0       0      51        0.0%
BITSFR51             0      0       0      52        0.0%
SFR51                0      0       0      52        0.0%
BITSFR52             0      0       0      53        0.0%
SFR52                0      0       0      53        0.0%
BITSFR53             0      0       0      54        0.0%
SFR53                0      0       0      54        0.0%
BITSFR54             0      0       0      55        0.0%
SFR54                0      0       0      55        0.0%
BITSFR55             0      0       0      56        0.0%
SFR55                0      0       0      56        0.0%
BITSFR56             0      0       0      57        0.0%
SFR56                0      0       0      57        0.0%
BITSFR57             0      0       0      58        0.0%
SFR57                0      0       0      58        0.0%
BITSFR58             0      0       0      59        0.0%
SFR58                0      0       0      59        0.0%
BITSFR59             0      0       0      60        0.0%
SFR59                0      0       0      60        0.0%
BITSFR60             0      0       0      61        0.0%
SFR60                0      0       0      61        0.0%
BITSFR61             0      0       0      62        0.0%
SFR61                0      0       0      62        0.0%
BITSFR62             0      0       0      63        0.0%
SFR62                0      0       0      63        0.0%
BITSFR63             0      0       0      64        0.0%
SFR63                0      0       0      64        0.0%


Microchip Technology PIC Macro Assembler V2.10 build 88905656 
Symbol Table                                                                                   Sat Jan 02 18:11:07 2021

                                   __CFG_CP$OFF 0000                                              l63 0335  
                                           l111 0382                                             l120 0407  
                                           l114 03E4                                             l117 03E8  
                                           l205 0419                                             l401 0431  
                                           l404 041F                                             l157 0353  
                                           l345 0302                                             l257 0397  
                                           l429 03CB                                             l279 0413  
                                           l482 0124                                             l395 042B  
                                           l398 0425                                             u905 0070  
                                           u915 007B                                             u925 008C  
                                           u870 03E8                                             u871 03E7  
                                           u935 0098                                             u880 005F  
                                           u945 00A4                                             u881 005E  
                                           u955 00AF                                             u965 00BA  
                                           u975 00C5                                             u895 0065  
                                           u985 00D6                                             u995 00E2  
                       __size_of_PMD_Initialize 0008                                    __CFG_BORV$LO 0000  
                                           wreg 0009                                   __CFG_BBEN$OFF 0000  
                                  __CFG_LVP$OFF 0000                                    __CFG_ZCD$OFF 0000  
                                          l2001 01F6                                            l2011 0222  
                                          l2003 0202                                            l2021 024B  
                                          l2013 0226                                            l2005 0206  
                                          l2023 024D                                            l2015 0233  
                                          l2007 0212                                            l2025 024E  
                                          l2017 023B                                            l2009 0216  
                                          l2027 024F                                            l2019 0243  
                                          l2029 0250                                            l1801 042C  
                                          l1811 030E                                            l1803 0303  
                                          l1901 03C9                                            l1821 0313  
                                          l1813 030F                                            l1805 0309  
                                          l1831 031A                                            l1823 0314  
                                          l1815 0310                                            l1807 030B  
                                          l1911 038C                                            l1903 0383  
                                          l1921 02DC                                            l1841 0324  
                                          l1833 031C                                            l1825 0315  
                                          l1817 0311                                            l1809 030D  
                                          l1913 0394                                            l1905 0388  
                                          l1931 02EB                                            l1923 02DE  
                                          l1915 02CF                                            l1851 0330  
                                          l1843 0327                                            l1835 031E  
                                          l1827 0316                                            l1819 0312  
                                          l1907 0389                                            l1933 02F3  
                                          l1925 02E0                                            l1917 02D1  
                                          l1853 0333                                            l1845 0329  
                                          l1837 0320                                            l1829 0318  
                                          l1861 033D                                            l1909 038B  
                                          l1941 0373                                            l1935 0300  
                                          l1927 02E2                                            l1919 02D9  
                                          l1847 032C                                            l1839 0322  
                                          l1855 0400                                            l1791 0414  
                                          l1871 034F                                            l1863 033F  
                                          l1943 0376                                            l1951 0059  
                                          l1929 02E3                                            l1881 03E2  
                                          l1849 032E                                            l1873 0351  
                                          l1865 0342                                            l1857 0336  
                                          l1793 040E                                            l1945 0379  
                                          l1937 036D                                            l1961 0078  
                                          l1891 03C2                                            l1795 041A  
                                          l1883 03E3                                            l1875 03DB  
                                          l1867 0345                                            l1859 033B  
                                          l1947 037C                                            l1939 0370  
                                          l1971 00AC                                            l1963 0083  
                                          l1955 0060                                            l1893 03C3  
                                          l1885 03BD                                            l1797 0426  
                                          l1877 03DE                                            l1869 0347  
                                          l1949 037F                                            l1981 00DE  
                                          l1973 00B7                                            l1965 0088  
                                          l1957 0062                                            l1895 03C6  
                                          l1887 03C0                                            l1799 0420  
                                          l1879 03DF                                            l1991 010F  
                                          l1983 00EA                                            l1975 00C2  
                                          l1967 0094                                            l1959 006D  
                                          l1897 03C7                                            l1889 03C1  
                                          l1993 0114                                            l1985 00F6  
                                          l1977 00CD                                            l1969 00A0  
                                          l1899 03C8                                            l1995 0118  
                                          l1987 00FA                                            l1979 00D2  
                                          l1989 0106                                            l1997 01EF  
                                          l1999 01F3                                            u1005 00EE  
                                          u1017 01FC                                            u1027 020C  
                                          u1037 021C                                            u1047 022C  
                                          u1057 0256                                            u1067 00FE  
                                          u1077 010A                                            _LATA 0018  
                                          _LATB 0019                                            u1087 011C  
                                          _LATC 001A                                            _PMD0 0796  
                                          _PMD1 0797                                            _PMD2 0798  
                                          _PMD3 0799                                            _PMD4 079A  
                                          _PMD5 079B                                            _PLLR 4480  
                                          _WPUA 1F39                                            _WPUB 1F44  
                                          _WPUC 1F4F                                            _WPUE 1F65  
                                 _EUSART1_Write 03F6                                   __CFG_FCMEN$ON 0000  
                                          _main 01EF                                            fsr0h 0005  
                                          fsr1h 0007                                            indf0 0000  
                                          fsr0l 0004                                            indf1 0001  
                                          fsr1l 0006                                            btemp 007E  
                                 __CFG_BOREN$ON 0000                                            start 0037  
                         ?_tmr0InterruptHandler 0076                                   __CFG_CSWEN$ON 0000  
                                 __CFG_MCLRE$ON 0000                         __end_of_TMR0_Initialize 0398  
                ??_TMR0_DefaultInterruptHandler 0076                  __size_of_OSCILLATOR_Initialize 000E  
                 __end_of_OSCILLATOR_Initialize 03E9                           _eusart1RxStatusBuffer 0020  
                                         ?_main 0076                                   __CFG_WDTE$OFF 0000  
                                         i1l202 03AB                                           i1l233 0035  
                                         i1l234 0035                                           i1l226 0013  
                                         i1l229 0026                                           i1l282 0441  
                                         i1l276 03DA                                           i1l372 03FF  
                                         i1l383 036C                                           i1l392 043D  
                                         i1l369 03F7                                           i1l386 0442  
                                         i1l482 01EE                                           i1l379 0298  
                                         i1l485 03F5                                           i1l389 0439  
                                         i1l495 02CE                                           i1l488 03BC  
                                         _OSCEN 0891                                           _TMR0H 059D  
                                         _TMR0L 059C                                           _PORTA 000C  
                                         _PORTB 000D                                           _PORTC 000E  
                                         u60_25 0159                                           u61_25 0165  
                                         u70_20 03A4                                           u70_21 03A3  
                                         u62_25 0171                                           u55_20 0367  
                                         u71_20 03FC                                           u55_21 0366  
                                         u71_21 03FB                                           u63_25 017C  
                                         u56_20 012C                                           u72_20 029F  
                                         u80_20 0017                                           u56_21 012B  
                                         u72_21 029E                                           u80_21 0016  
                                         u64_25 0187                                           u73_20 02B5  
                                         u81_20 001B                                           u73_21 02B4  
                                         u81_21 001A                                           _TRISA 0012  
                                         _TRISB 0013                                           u65_25 0192  
                                         u57_25 0132                                           _TRISC 0014  
                                         u74_20 03D5                                           u82_20 001F  
                                         u74_21 03D4                                           u82_21 001E  
                                         u66_25 01A3                                           u58_25 013D  
                                         u75_20 026A                                           u83_20 002A  
                                         u75_21 0269                                           u83_21 0029  
                                         u67_25 01AF                                           u59_25 0148  
                                         u76_20 027A                                           u84_20 002E  
                                         u76_21 0279                                           u84_21 002D  
                                         u68_25 01BB                                           u69_20 039D  
                                         u77_20 028E                                           u69_21 039C  
                                         u77_21 028D                                           u78_20 000B  
                                         u78_21 000A                                           u79_20 000F  
                                         u79_21 000E               __size_of_TMR0_SetInterruptHandler 0006  
                     ?_TMR0_SetInterruptHandler 003C                                __end_of_SPI1_Isr 03AC  
                              __end_of_TMR0_ISR 03DB                                   __CFG_WRTB$OFF 0000  
                                 __CFG_WRTC$OFF 0000                          ??_spi1InterruptHandler 0076  
                               __end_of_setDots 0125                                  ?_EUSART1_Write 0076  
                                         pclath 000A                                           status 0003  
                                         wtemp0 007E      __end_of_EUSART1_DefaultFramingErrorHandler 0443  
   __size_of_EUSART1_DefaultFramingErrorHandler 0001            ??_EUSART1_DefaultFramingErrorHandler 0076  
           ?_EUSART1_DefaultFramingErrorHandler 0076              _EUSART1_DefaultFramingErrorHandler 0442  
                      __size_of_SPI1_Initialize 001E                                 __initialization 0039  
                    __end_of_EUSART1_Initialize 0303                                    __end_of_main 0260  
                                __CFG_SAFEN$OFF 0000                        _SPI1_SetInterruptHandler 0414  
                            __size_ofi1_setDots 00CA                     ?_INTERRUPT_InterruptManager 0076  
                                        ??_main 003F                   __size_of_eusart1RxDataHandler 0011  
                                        _ANSELA 1F38                                          _ANSELB 1F43  
                                        _ANSELC 1F4E                                          _T0CON0 059E  
                                        _T0CON1 059F                                          _RC1REG 0119  
                                        _RC1PPS 1F21                                          _RC1STA 011D  
                                        _RC4PPS 1F24                                          u110_27 01D6  
                                        _RC5PPS 1F25                                          u111_27 01E6  
                                        _ODCONA 1F3A                                          _ODCONB 1F45  
                                        i1l1531 035D                                          _ODCONC 1F50  
                                        _RC6PPS 1F26                                          i1l1541 03EB  
                                        i1l1533 0361                                          i1l1701 027A  
                                        i1l1543 03F1                                          i1l1535 0367  
                                        i1l1551 012D                                          i1l1711 03AC  
                                        i1l1703 027F                                          i1l1545 03F3  
                                        i1l1537 0368                                          i1l1529 0354  
                                        i1l1561 0155                                          i1l1553 012F  
                                        i1l1713 03AE                                          i1l1705 0285  
                                        i1l1721 0006                                          i1l1651 03A9  
                                        i1l1539 03E9                                          i1l1571 018F  
                                        i1l1563 0161                                          i1l1555 013A  
                                        i1l1547 0126                                          i1l1715 03B2  
                                        i1l1707 028E                                          i1l1731 001F  
                                        i1l1723 000B                                          i1l1645 0398  
                                        i1l1581 01C3                                          i1l1573 019A  
                                        i1l1565 016D                                          i1l1557 0145  
                                        i1l1661 0299                                          i1l1653 03F7  
                                        i1l1717 03B8                                          i1l1709 0295  
                                        i1l1733 002A                                          i1l1725 000F  
                                        i1l1647 039D                                          i1l1591 01E3  
                                        i1l1583 01C8                                          i1l1575 019F  
                                        i1l1567 0179                                          i1l1559 0150  
                                        i1l1663 029F                                          i1l1655 03FC  
                                        i1l1719 03BA                                          i1l1735 002E  
                                        i1l1727 0017                                          i1l1649 03A4  
                                        i1l1657 0436                                          i1l1585 01D3  
                                        i1l1577 01AB                                          i1l1569 0184  
                                        i1l1665 02B5                                          i1l1729 001B  
                                        i1l1659 043A                                          i1l1587 01DA  
                                        i1l1579 01B7                                          i1l1667 02C5  
                                        i1l1691 0260                                          i1l1589 01DE  
                                        i1l1669 02CA                                          i1l1685 03CC  
                                        i1l1693 0265                                          i1l1687 03CE  
                                        i1l1695 026A                                          i1l1689 03D5  
                                        i1l1697 026F                                          i1l1699 0275  
                                __CFG_WDTCCS$SC 0000                                          u109_27 01CB  
                                        _INLVLA 1F3C                                          _INLVLB 1F47  
                                        _INLVLC 1F52                                          _INLVLE 1F68  
                                        _OSCFRQ 0893                                          _TX1REG 011A  
                                        _TX1STA 011E                          ??_tmr0InterruptHandler 0079  
                                __CFG_PWRTE$OFF 0000                                  __CFG_STVREN$ON 0000  
                      ?_EUSART1_SetErrorHandler 003C                                ?_TMR0_Initialize 0076  
              ??_EUSART1_SetOverrunErrorHandler 003E                 ?_EUSART1_SetOverrunErrorHandler 003C  
                                _PMD_Initialize 0400                                       ??_setDots 003C  
                               ??_EUSART1_Write 0076        TMR0_SetInterruptHandler@InterruptHandler 003C  
                               _CLC1_Initialize 03BD                                 _eusart1RxBuffer 0028  
                             __end_ofi1_setDots 01EF                               _SYSTEM_Initialize 036D  
                       __end_of__initialization 0053                              ?_SYSTEM_Initialize 0076  
                __size_of_EUSART1_RxDataHandler 0019                   __end_of_EUSART1_RxDataHandler 036D  
                                __pcstackCOMMON 0076                                       ?_SPI1_Isr 0076  
                                  __pidataBANK0 043E                             ??_SYSTEM_Initialize 003E  
                                     ?_TMR0_ISR 0076                               ??_SPI1_Initialize 003E  
                        __end_of_PMD_Initialize 0408                              _spi1_configuration 0432  
                   __end_of_EUSART1_Receive_ISR 0299                       __end_of_SYSTEM_Initialize 0383  
                                 _eusart1RxHead 0075                                   _eusart1RxTail 0074  
                                    __pbssBANK0 0020                 ??_EUSART1_SetRxInterruptHandler 003E  
               __end_of_EUSART1_SetErrorHandler 0432                                      __pmaintext 01EF  
              __end_of_TMR0_SetInterruptHandler 0414                                      ??_SPI1_Isr 0076  
                                    ??_TMR0_ISR 007B                                 __CFG_PPS1WAY$ON 0000  
                                    __pintentry 0004                                         _CLC1CON 1E10  
                                       _CLC1POL 1E11                                 ?_PMD_Initialize 0076  
        __end_of_EUSART1_SetFramingErrorHandler 042C         __size_of_EUSART1_SetFramingErrorHandler 0006  
                _EUSART1_SetFramingErrorHandler 0426                         __end_of_CLC1_Initialize 03CC  
                  ?_EUSART1_DefaultErrorHandler 0076                                         _SP1BRGH 011C  
                                       _SP1BRGL 011B                                         _OSCCON1 088D  
                                       _OSCCON3 088F                                         _OSCSTAT 0890  
                                       _OSCTUNE 0892                                         _SSP1ADD 018D  
                                       _SLRCONA 1F3B                                         _SLRCONB 1F46  
                                       _SLRCONC 1F51                                         _SSP1BUF 018C  
                    ??_SPI1_SetInterruptHandler 003E                                       _CLCIN0PPS 1EBB  
                                       __ptext1 0057                                         __ptext2 036D  
                                       __ptext3 0383                                         __ptext4 040E  
                                       __ptext5 0336                                         __ptext6 0414  
                                       __ptext7 0400                                         __ptext8 0303  
                                       __ptext9 03DB                                 __CFG_WRTAPP$OFF 0000  
                                       _counter 0041                           _OSCILLATOR_Initialize 03DB  
                                       _setDots 0057                              _EUSART1_Initialize 02CF  
                      ??_PIN_MANAGER_Initialize 003C                                 __CFG_WRTSAF$OFF 0000  
                 ??_EUSART1_DefaultErrorHandler 0077                      __size_of_SYSTEM_Initialize 0016  
                                       clrloop0 0409                            end_of_initialization 0053  
                           ?_EUSART1_Initialize 0076                   __size_of_spi1InterruptHandler 000D  
                  __end_of_eusart1RxDataHandler 03BD                     _EUSART1_OverrunErrorHandler 0032  
         __end_of_EUSART1_SetRxInterruptHandler 0420          __size_of_EUSART1_SetRxInterruptHandler 0006  
                 _EUSART1_SetRxInterruptHandler 041A                            ??_EUSART1_Initialize 003E  
                         __CFG_WDTCPS$WDTCPS_31 0000                        _TMR0_SetInterruptHandler 040E  
                              ?_CLC1_Initialize 0076                                       _TRISCbits 0014  
              __size_of_EUSART1_SetErrorHandler 0006                             EUSART1_Write@txData 0076  
                              __CFG_FEXTOSC$OFF 0000                                 _SPI1_Initialize 0336  
                                     i1_setDots 0125            __size_of_EUSART1_DefaultErrorHandler 0004  
                 __size_of_tmr0InterruptHandler 0036                                     _CLC1CONbits 1E10  
                             __size_of_SPI1_Isr 0014                               __size_of_TMR0_ISR 000F  
                        ?_OSCILLATOR_Initialize 0076                             start_initialization 0039  
                      __size_of_TMR0_Initialize 0015                 __size_of_PIN_MANAGER_Initialize 0033  
 EUSART1_SetRxInterruptHandler@interruptHandler 003C                           __end_of_EUSART1_Write 0400  
                                    ?i1_setDots 0076                                __CFG_LPBOREN$OFF 0000  
                              ??_PMD_Initialize 003C                           _EUSART1_RxDataHandler 0354  
                ?_EUSART1_SetRxInterruptHandler 003C                                     __pdataBANK0 0041  
                          _eusart1RxDataHandler 03AC                                  _eusart1RxCount 0073  
                                   __pbssCOMMON 0070               _EUSART1_RxDefaultInterruptHandler 0038  
                                     ___latbits 0002                                   __pcstackBANK0 003C  
                       __end_of_SPI1_Initialize 0354                ??_EUSART1_SetFramingErrorHandler 003E  
               ?_EUSART1_SetFramingErrorHandler 003C                    __size_of_EUSART1_Receive_ISR 0039  
                         _TMR0_InterruptHandler 0036                                       __pnvBANK0 0044  
                        _PIN_MANAGER_Initialize 0303                          _MSSP1_InterruptHandler 0044  
                                     _idleStart 0043                    ??_INTERRUPT_InterruptManager 007B  
                         ?_eusart1RxDataHandler 0076                                  setDots@newData 003E  
                                      _BAUD1CON 011F                                        _CLC1GLS0 1E16  
                                      _CLC1GLS1 1E17                                        _CLC1GLS2 1E18  
                                      _CLC1GLS3 1E19                                        _CLC1SEL0 1E12  
                                      _CLC1SEL1 1E13                                        _CLC1SEL2 1E14  
                                      _CLC1SEL3 1E15      __end_of_EUSART1_DefaultOverrunErrorHandler 043A  
   __size_of_EUSART1_DefaultOverrunErrorHandler 0004            ??_EUSART1_DefaultOverrunErrorHandler 0076  
           ?_EUSART1_DefaultOverrunErrorHandler 0076              _EUSART1_DefaultOverrunErrorHandler 0436  
                          _EUSART1_ErrorHandler 0030                                        ?_setDots 0076  
                       _EUSART1_SetErrorHandler 042C                            __CFG_RSTOSC$HFINTPLL 0000  
                             ??_TMR0_Initialize 003E         EUSART1_SetErrorHandler@interruptHandler 003C  
                                     _nextState 0070                                       clear_ram0 0408  
                                      _PIE0bits 0716                                        _PIE3bits 0719  
                                   ??i1_setDots 0076             __size_of_INTERRUPT_InterruptManager 0033  
                    ??_TMR0_SetInterruptHandler 003E                                        _PIR0bits 070C  
                                      _PIR3bits 070F                                        _RX1DTPPS 1ECB  
                        ?_EUSART1_RxDataHandler 0076                               __CFG_BBSIZE$BB512 0000  
                                      _SPI1_Isr 0398                                        _SSP1CON1 0190  
                                      _SSP1CON2 0191                                        _TMR0_ISR 03CC  
                                      _SSP1STAT 018F                    __end_of_spi1InterruptHandler 03F6  
             __size_of_SPI1_SetInterruptHandler 0006                       ?_SPI1_SetInterruptHandler 003C  
                              ?_SPI1_Initialize 0076                 SPI1_SetInterruptHandler@handler 003C  
                       ??_OSCILLATOR_Initialize 003C                          ??_eusart1RxDataHandler 0077  
                   __size_of_EUSART1_Initialize 0034                       ??_EUSART1_SetErrorHandler 003E  
           __end_of_EUSART1_DefaultErrorHandler 043E                     _EUSART1_DefaultErrorHandler 043A  
                  __end_of_tmr0InterruptHandler 02CF                                      _T0CON0bits 059E  
                              __size_of_setDots 00CE                                        __ptext10 02CF  
                                      __ptext11 041A                                        __ptext20 03CC  
                                      __ptext12 0420                                        __ptext21 0441  
                                      __ptext13 0426                                        __ptext22 0299  
                                      __ptext14 042C                                        __ptext23 0125  
                                      __ptext15 03BD                                        __ptext24 0436  
                                      __ptext25 0442                                        __ptext17 0260  
                                      __ptext26 043A                                        __ptext18 03AC  
                                      __ptext27 0354                                        __ptext19 03F6  
                                      __ptext28 03E9                                        __ptext29 0398  
                                  _SSP1CON1bits 0190                                    _SSP1CON3bits 0192  
                      __size_of_CLC1_Initialize 000F                                        _lastData 003A  
                                 __size_of_main 0071            __end_of_TMR0_DefaultInterruptHandler 0442  
         __size_of_TMR0_DefaultInterruptHandler 0001                    _TMR0_DefaultInterruptHandler 0441  
                          __CFG_WDTCWS$WDTCWS_7 0000                                      _RC1STAbits 011D  
EUSART1_SetOverrunErrorHandler@interruptHandler 003C                                        int$flags 007E  
            __end_of_INTERRUPT_InterruptManager 0037                      _INTERRUPT_InterruptManager 0004  
                   _EUSART1_FramingErrorHandler 0034                             _EUSART1_Receive_ISR 0260  
                                    _INTCONbits 000B                                        intlevel1 0000  
                          _spi1InterruptHandler 03E9                            ?_EUSART1_Receive_ISR 0076  
                       ?_PIN_MANAGER_Initialize 0076                               __CFG_CLKOUTEN$OFF 0000  
        __end_of_EUSART1_SetOverrunErrorHandler 0426         __size_of_EUSART1_SetOverrunErrorHandler 0006  
                _EUSART1_SetOverrunErrorHandler 0420                                   _previousState 0071  
                 ?_TMR0_DefaultInterruptHandler 0076  EUSART1_SetFramingErrorHandler@interruptHandler 003C  
                        __size_of_EUSART1_Write 000A                              _eusart1RxLastError 003B  
                                 __pstringtext1 0432                                      _SSP1DATPPS 1EC6  
                                    _SSP1CLKPPS 1EC5                                 _TMR0_Initialize 0383  
                                  _previousData 0072                                      _TX1STAbits 011E  
                         ?_spi1InterruptHandler 0076                           ??_EUSART1_Receive_ISR 0077  
                __end_of_PIN_MANAGER_Initialize 0336                                i1setDots@newData 0078  
                       ??_EUSART1_RxDataHandler 0076                               ??_CLC1_Initialize 003C  
                    __end_of_spi1_configuration 0436                __end_of_SPI1_SetInterruptHandler 041A  
                          _tmr0InterruptHandler 0299  
